
AVR64DD32-SIM800L-HS180S10B.elf:     file format elf32-avr

Sections:
Idx Name          Size      VMA       LMA       File off  Algn
  0 .data         0000044c  00806000  000012b8  0000134c  2**0
                  CONTENTS, ALLOC, LOAD, DATA
  1 .text         000012b8  00000000  00000000  00000094  2**1
                  CONTENTS, ALLOC, LOAD, READONLY, CODE
  2 .bss          00000054  0080644c  0080644c  00001798  2**0
                  ALLOC
  3 .comment      0000005c  00000000  00000000  00001798  2**0
                  CONTENTS, READONLY
  4 .note.gnu.avr.deviceinfo 0000003c  00000000  00000000  000017f4  2**2
                  CONTENTS, READONLY
  5 .debug_aranges 00000218  00000000  00000000  00001830  2**3
                  CONTENTS, READONLY, DEBUGGING
  6 .debug_info   00005510  00000000  00000000  00001a48  2**0
                  CONTENTS, READONLY, DEBUGGING
  7 .debug_abbrev 00002db6  00000000  00000000  00006f58  2**0
                  CONTENTS, READONLY, DEBUGGING
  8 .debug_line   000017b4  00000000  00000000  00009d0e  2**0
                  CONTENTS, READONLY, DEBUGGING
  9 .debug_frame  0000058c  00000000  00000000  0000b4c4  2**2
                  CONTENTS, READONLY, DEBUGGING
 10 .debug_str    00001f21  00000000  00000000  0000ba50  2**0
                  CONTENTS, READONLY, DEBUGGING
 11 .debug_loc    00001936  00000000  00000000  0000d971  2**0
                  CONTENTS, READONLY, DEBUGGING
 12 .debug_ranges 00000178  00000000  00000000  0000f2a7  2**0
                  CONTENTS, READONLY, DEBUGGING

Disassembly of section .text:

00000000 <__vectors>:
       0:	0c 94 48 00 	jmp	0x90	; 0x90 <__ctors_end>
       4:	0c 94 65 00 	jmp	0xca	; 0xca <__bad_interrupt>
       8:	0c 94 65 00 	jmp	0xca	; 0xca <__bad_interrupt>
       c:	0c 94 65 00 	jmp	0xca	; 0xca <__bad_interrupt>
      10:	0c 94 65 00 	jmp	0xca	; 0xca <__bad_interrupt>
      14:	0c 94 65 00 	jmp	0xca	; 0xca <__bad_interrupt>
      18:	0c 94 65 00 	jmp	0xca	; 0xca <__bad_interrupt>
      1c:	0c 94 65 00 	jmp	0xca	; 0xca <__bad_interrupt>
      20:	0c 94 65 00 	jmp	0xca	; 0xca <__bad_interrupt>
      24:	0c 94 65 00 	jmp	0xca	; 0xca <__bad_interrupt>
      28:	0c 94 65 00 	jmp	0xca	; 0xca <__bad_interrupt>
      2c:	0c 94 65 00 	jmp	0xca	; 0xca <__bad_interrupt>
      30:	0c 94 65 00 	jmp	0xca	; 0xca <__bad_interrupt>
      34:	0c 94 65 00 	jmp	0xca	; 0xca <__bad_interrupt>
      38:	0c 94 65 00 	jmp	0xca	; 0xca <__bad_interrupt>
      3c:	0c 94 65 00 	jmp	0xca	; 0xca <__bad_interrupt>
      40:	0c 94 65 00 	jmp	0xca	; 0xca <__bad_interrupt>
      44:	0c 94 65 00 	jmp	0xca	; 0xca <__bad_interrupt>
      48:	0c 94 65 00 	jmp	0xca	; 0xca <__bad_interrupt>
      4c:	0c 94 65 00 	jmp	0xca	; 0xca <__bad_interrupt>
      50:	0c 94 65 00 	jmp	0xca	; 0xca <__bad_interrupt>
      54:	0c 94 65 00 	jmp	0xca	; 0xca <__bad_interrupt>
      58:	0c 94 65 00 	jmp	0xca	; 0xca <__bad_interrupt>
      5c:	0c 94 65 00 	jmp	0xca	; 0xca <__bad_interrupt>
      60:	0c 94 65 00 	jmp	0xca	; 0xca <__bad_interrupt>
      64:	0c 94 65 00 	jmp	0xca	; 0xca <__bad_interrupt>
      68:	0c 94 65 00 	jmp	0xca	; 0xca <__bad_interrupt>
      6c:	0c 94 65 00 	jmp	0xca	; 0xca <__bad_interrupt>
      70:	0c 94 65 00 	jmp	0xca	; 0xca <__bad_interrupt>
      74:	0c 94 65 00 	jmp	0xca	; 0xca <__bad_interrupt>
      78:	0c 94 65 00 	jmp	0xca	; 0xca <__bad_interrupt>
      7c:	0c 94 65 00 	jmp	0xca	; 0xca <__bad_interrupt>
      80:	0c 94 65 00 	jmp	0xca	; 0xca <__bad_interrupt>
      84:	0c 94 65 00 	jmp	0xca	; 0xca <__bad_interrupt>
      88:	0c 94 65 00 	jmp	0xca	; 0xca <__bad_interrupt>
      8c:	0c 94 65 00 	jmp	0xca	; 0xca <__bad_interrupt>

00000090 <__ctors_end>:
      90:	11 24       	eor	r1, r1
      92:	1f be       	out	0x3f, r1	; 63
      94:	cf ef       	ldi	r28, 0xFF	; 255
      96:	cd bf       	out	0x3d, r28	; 61
      98:	df e7       	ldi	r29, 0x7F	; 127
      9a:	de bf       	out	0x3e, r29	; 62

0000009c <__do_copy_data>:
      9c:	14 e6       	ldi	r17, 0x64	; 100
      9e:	a0 e0       	ldi	r26, 0x00	; 0
      a0:	b0 e6       	ldi	r27, 0x60	; 96
      a2:	e8 eb       	ldi	r30, 0xB8	; 184
      a4:	f2 e1       	ldi	r31, 0x12	; 18
      a6:	02 c0       	rjmp	.+4      	; 0xac <__do_copy_data+0x10>
      a8:	05 90       	lpm	r0, Z+
      aa:	0d 92       	st	X+, r0
      ac:	ac 34       	cpi	r26, 0x4C	; 76
      ae:	b1 07       	cpc	r27, r17
      b0:	d9 f7       	brne	.-10     	; 0xa8 <__do_copy_data+0xc>

000000b2 <__do_clear_bss>:
      b2:	24 e6       	ldi	r18, 0x64	; 100
      b4:	ac e4       	ldi	r26, 0x4C	; 76
      b6:	b4 e6       	ldi	r27, 0x64	; 100
      b8:	01 c0       	rjmp	.+2      	; 0xbc <.do_clear_bss_start>

000000ba <.do_clear_bss_loop>:
      ba:	1d 92       	st	X+, r1

000000bc <.do_clear_bss_start>:
      bc:	a0 3a       	cpi	r26, 0xA0	; 160
      be:	b2 07       	cpc	r27, r18
      c0:	e1 f7       	brne	.-8      	; 0xba <.do_clear_bss_loop>
      c2:	0e 94 ec 01 	call	0x3d8	; 0x3d8 <main>
      c6:	0c 94 5a 09 	jmp	0x12b4	; 0x12b4 <_exit>

000000ca <__bad_interrupt>:
      ca:	0c 94 00 00 	jmp	0	; 0x0 <__vectors>

000000ce <split_fields>:
 * @param fields     Array of pointers to store extracted fields.
 * @param max_fields Maximum number of fields to extract.
 *
 * @return Number of fields successfully extracted.
 */
int split_fields(char *line, char *fields[], int max_fields) {
      ce:	cf 93       	push	r28
      d0:	df 93       	push	r29
      d2:	fc 01       	movw	r30, r24
	 int count = 0;
	 char *ptr = line;
	 char *start = ptr;
      d4:	ec 01       	movw	r28, r24
 * @param max_fields Maximum number of fields to extract.
 *
 * @return Number of fields successfully extracted.
 */
int split_fields(char *line, char *fields[], int max_fields) {
	 int count = 0;
      d6:	20 e0       	ldi	r18, 0x00	; 0
      d8:	30 e0       	ldi	r19, 0x00	; 0
	 char *ptr = line;
	 char *start = ptr;
	 while (*ptr && count < max_fields) {
      da:	0f c0       	rjmp	.+30     	; 0xfa <split_fields+0x2c>
		 if (*ptr == ',') {
      dc:	9c 32       	cpi	r25, 0x2C	; 44
      de:	61 f4       	brne	.+24     	; 0xf8 <split_fields+0x2a>
			 *ptr = '\0';
      e0:	10 82       	st	Z, r1
			 fields[count++] = start;
      e2:	d9 01       	movw	r26, r18
      e4:	aa 0f       	add	r26, r26
      e6:	bb 1f       	adc	r27, r27
      e8:	a6 0f       	add	r26, r22
      ea:	b7 1f       	adc	r27, r23
      ec:	cd 93       	st	X+, r28
      ee:	dc 93       	st	X, r29
			 start = ptr + 1;
      f0:	ef 01       	movw	r28, r30
      f2:	21 96       	adiw	r28, 0x01	; 1
	 char *ptr = line;
	 char *start = ptr;
	 while (*ptr && count < max_fields) {
		 if (*ptr == ',') {
			 *ptr = '\0';
			 fields[count++] = start;
      f4:	2f 5f       	subi	r18, 0xFF	; 255
      f6:	3f 4f       	sbci	r19, 0xFF	; 255
			 start = ptr + 1;
		 }
		 ptr++;
      f8:	31 96       	adiw	r30, 0x01	; 1
 */
int split_fields(char *line, char *fields[], int max_fields) {
	 int count = 0;
	 char *ptr = line;
	 char *start = ptr;
	 while (*ptr && count < max_fields) {
      fa:	90 81       	ld	r25, Z
      fc:	99 23       	and	r25, r25
      fe:	19 f0       	breq	.+6      	; 0x106 <__EEPROM_REGION_LENGTH__+0x6>
     100:	24 17       	cp	r18, r20
     102:	35 07       	cpc	r19, r21
     104:	5c f3       	brlt	.-42     	; 0xdc <split_fields+0xe>
			 fields[count++] = start;
			 start = ptr + 1;
		 }
		 ptr++;
	 }
	 if (count < max_fields && start < ptr) {
     106:	24 17       	cp	r18, r20
     108:	35 07       	cpc	r19, r21
     10a:	6c f4       	brge	.+26     	; 0x126 <__EEPROM_REGION_LENGTH__+0x26>
     10c:	ce 17       	cp	r28, r30
     10e:	df 07       	cpc	r29, r31
     110:	50 f4       	brcc	.+20     	; 0x126 <__EEPROM_REGION_LENGTH__+0x26>
		 fields[count++] = start;
     112:	c9 01       	movw	r24, r18
     114:	88 0f       	add	r24, r24
     116:	99 1f       	adc	r25, r25
     118:	fb 01       	movw	r30, r22
     11a:	e8 0f       	add	r30, r24
     11c:	f9 1f       	adc	r31, r25
     11e:	c0 83       	st	Z, r28
     120:	d1 83       	std	Z+1, r29	; 0x01
     122:	2f 5f       	subi	r18, 0xFF	; 255
     124:	3f 4f       	sbci	r19, 0xFF	; 255
	 }
	 return count;
 }
     126:	c9 01       	movw	r24, r18
     128:	df 91       	pop	r29
     12a:	cf 91       	pop	r28
     12c:	08 95       	ret

0000012e <parse_GNRMC>:
 * @param buffer Input NMEA data buffer (string containing multiple sentences).
 * @param r      Pointer to the RMC_Data structure to fill with parsed values.
 *
 * @return true if parsing was successful, false otherwise.
 */
bool parse_GNRMC(const char *buffer, RMC_Data *r) {// only time and date
     12e:	0f 93       	push	r16
     130:	1f 93       	push	r17
     132:	cf 93       	push	r28
     134:	df 93       	push	r29
     136:	cd b7       	in	r28, 0x3d	; 61
     138:	de b7       	in	r29, 0x3e	; 62
     13a:	ca 55       	subi	r28, 0x5A	; 90
     13c:	d1 09       	sbc	r29, r1
     13e:	cd bf       	out	0x3d, r28	; 61
     140:	de bf       	out	0x3e, r29	; 62
     142:	8b 01       	movw	r16, r22
	const char *line = strstr(buffer, "$GNRMC");
     144:	60 e0       	ldi	r22, 0x00	; 0
     146:	70 e6       	ldi	r23, 0x60	; 96
     148:	0e 94 1c 06 	call	0xc38	; 0xc38 <strstr>
	if (!line) return false;
     14c:	00 97       	sbiw	r24, 0x00	; 0
     14e:	09 f4       	brne	.+2      	; 0x152 <parse_GNRMC+0x24>
     150:	6d c0       	rjmp	.+218    	; 0x22c <parse_GNRMC+0xfe>
	char copy[NMEA_BUFFER_SIZE];
	strncpy(copy, line, sizeof(copy) - 1);
     152:	4b e3       	ldi	r20, 0x3B	; 59
     154:	50 e0       	ldi	r21, 0x00	; 0
     156:	bc 01       	movw	r22, r24
     158:	ce 01       	movw	r24, r28
     15a:	01 96       	adiw	r24, 0x01	; 1
     15c:	0e 94 0d 06 	call	0xc1a	; 0xc1a <strncpy>
	copy[sizeof(copy) - 1] = '\0';
     160:	1c ae       	std	Y+60, r1	; 0x3c
	char *fields[15] = {0};
     162:	be 01       	movw	r22, r28
     164:	63 5c       	subi	r22, 0xC3	; 195
     166:	7f 4f       	sbci	r23, 0xFF	; 255
     168:	8e e1       	ldi	r24, 0x1E	; 30
     16a:	fb 01       	movw	r30, r22
     16c:	11 92       	st	Z+, r1
     16e:	8a 95       	dec	r24
     170:	e9 f7       	brne	.-6      	; 0x16c <parse_GNRMC+0x3e>
	int count = split_fields(copy, fields, 15);
     172:	4f e0       	ldi	r20, 0x0F	; 15
     174:	50 e0       	ldi	r21, 0x00	; 0
     176:	ce 01       	movw	r24, r28
     178:	01 96       	adiw	r24, 0x01	; 1
     17a:	0e 94 67 00 	call	0xce	; 0xce <split_fields>
	if (count < 10) return false;
     17e:	0a 97       	sbiw	r24, 0x0a	; 10
     180:	0c f4       	brge	.+2      	; 0x184 <parse_GNRMC+0x56>
     182:	56 c0       	rjmp	.+172    	; 0x230 <parse_GNRMC+0x102>
	if (fields[1] && strlen(fields[1]) >= 6) {
     184:	21 96       	adiw	r28, 0x01	; 1
     186:	ae ad       	ldd	r26, Y+62	; 0x3e
     188:	bf ad       	ldd	r27, Y+63	; 0x3f
     18a:	21 97       	sbiw	r28, 0x01	; 1
     18c:	10 97       	sbiw	r26, 0x00	; 0
     18e:	99 f1       	breq	.+102    	; 0x1f6 <parse_GNRMC+0xc8>
     190:	fd 01       	movw	r30, r26
     192:	01 90       	ld	r0, Z+
     194:	00 20       	and	r0, r0
     196:	e9 f7       	brne	.-6      	; 0x192 <parse_GNRMC+0x64>
     198:	31 97       	sbiw	r30, 0x01	; 1
     19a:	ea 1b       	sub	r30, r26
     19c:	fb 0b       	sbc	r31, r27
     19e:	36 97       	sbiw	r30, 0x06	; 6
     1a0:	50 f1       	brcs	.+84     	; 0x1f6 <parse_GNRMC+0xc8>
		snprintf(r->utc, sizeof(r->utc), "%c%c:%c%c:%c%c",
		fields[1][0], fields[1][1],
		fields[1][2], fields[1][3],
		fields[1][4], fields[1][5]);
     1a2:	15 96       	adiw	r26, 0x05	; 5
     1a4:	5c 91       	ld	r21, X
     1a6:	15 97       	sbiw	r26, 0x05	; 5
     1a8:	14 96       	adiw	r26, 0x04	; 4
     1aa:	4c 91       	ld	r20, X
     1ac:	14 97       	sbiw	r26, 0x04	; 4
	int count = split_fields(copy, fields, 15);
	if (count < 10) return false;
	if (fields[1] && strlen(fields[1]) >= 6) {
		snprintf(r->utc, sizeof(r->utc), "%c%c:%c%c:%c%c",
		fields[1][0], fields[1][1],
		fields[1][2], fields[1][3],
     1ae:	13 96       	adiw	r26, 0x03	; 3
     1b0:	3c 91       	ld	r19, X
     1b2:	13 97       	sbiw	r26, 0x03	; 3
     1b4:	12 96       	adiw	r26, 0x02	; 2
     1b6:	2c 91       	ld	r18, X
     1b8:	12 97       	sbiw	r26, 0x02	; 2
	char *fields[15] = {0};
	int count = split_fields(copy, fields, 15);
	if (count < 10) return false;
	if (fields[1] && strlen(fields[1]) >= 6) {
		snprintf(r->utc, sizeof(r->utc), "%c%c:%c%c:%c%c",
		fields[1][0], fields[1][1],
     1ba:	11 96       	adiw	r26, 0x01	; 1
     1bc:	9c 91       	ld	r25, X
     1be:	11 97       	sbiw	r26, 0x01	; 1
     1c0:	8c 91       	ld	r24, X
	copy[sizeof(copy) - 1] = '\0';
	char *fields[15] = {0};
	int count = split_fields(copy, fields, 15);
	if (count < 10) return false;
	if (fields[1] && strlen(fields[1]) >= 6) {
		snprintf(r->utc, sizeof(r->utc), "%c%c:%c%c:%c%c",
     1c2:	1f 92       	push	r1
     1c4:	5f 93       	push	r21
     1c6:	1f 92       	push	r1
     1c8:	4f 93       	push	r20
     1ca:	1f 92       	push	r1
     1cc:	3f 93       	push	r19
     1ce:	1f 92       	push	r1
     1d0:	2f 93       	push	r18
     1d2:	1f 92       	push	r1
     1d4:	9f 93       	push	r25
     1d6:	1f 92       	push	r1
     1d8:	8f 93       	push	r24
     1da:	87 e0       	ldi	r24, 0x07	; 7
     1dc:	90 e6       	ldi	r25, 0x60	; 96
     1de:	9f 93       	push	r25
     1e0:	8f 93       	push	r24
     1e2:	1f 92       	push	r1
     1e4:	8b e0       	ldi	r24, 0x0B	; 11
     1e6:	8f 93       	push	r24
     1e8:	1f 93       	push	r17
     1ea:	0f 93       	push	r16
     1ec:	0e 94 36 06 	call	0xc6c	; 0xc6c <snprintf>
     1f0:	cd bf       	out	0x3d, r28	; 61
     1f2:	de bf       	out	0x3e, r29	; 62
     1f4:	08 c0       	rjmp	.+16     	; 0x206 <parse_GNRMC+0xd8>
		fields[1][0], fields[1][1],
		fields[1][2], fields[1][3],
		fields[1][4], fields[1][5]);
		} else {
		strcpy(r->utc, "00:00:00");
     1f6:	89 e0       	ldi	r24, 0x09	; 9
     1f8:	e6 e1       	ldi	r30, 0x16	; 22
     1fa:	f0 e6       	ldi	r31, 0x60	; 96
     1fc:	d8 01       	movw	r26, r16
     1fe:	01 90       	ld	r0, Z+
     200:	0d 92       	st	X+, r0
     202:	8a 95       	dec	r24
     204:	e1 f7       	brne	.-8      	; 0x1fe <parse_GNRMC+0xd0>
	}
	if (fields[9]) strncpy(r->date, fields[9], sizeof(r->date));
     206:	61 96       	adiw	r28, 0x11	; 17
     208:	6e ad       	ldd	r22, Y+62	; 0x3e
     20a:	7f ad       	ldd	r23, Y+63	; 0x3f
     20c:	61 97       	sbiw	r28, 0x11	; 17
     20e:	61 15       	cp	r22, r1
     210:	71 05       	cpc	r23, r1
     212:	41 f0       	breq	.+16     	; 0x224 <parse_GNRMC+0xf6>
     214:	49 e0       	ldi	r20, 0x09	; 9
     216:	50 e0       	ldi	r21, 0x00	; 0
     218:	c8 01       	movw	r24, r16
     21a:	0b 96       	adiw	r24, 0x0b	; 11
     21c:	0e 94 0d 06 	call	0xc1a	; 0xc1a <strncpy>
	else r->date[0] = '\0';
	return true;
     220:	81 e0       	ldi	r24, 0x01	; 1
     222:	07 c0       	rjmp	.+14     	; 0x232 <parse_GNRMC+0x104>
		fields[1][4], fields[1][5]);
		} else {
		strcpy(r->utc, "00:00:00");
	}
	if (fields[9]) strncpy(r->date, fields[9], sizeof(r->date));
	else r->date[0] = '\0';
     224:	f8 01       	movw	r30, r16
     226:	13 86       	std	Z+11, r1	; 0x0b
	return true;
     228:	81 e0       	ldi	r24, 0x01	; 1
     22a:	03 c0       	rjmp	.+6      	; 0x232 <parse_GNRMC+0x104>
 *
 * @return true if parsing was successful, false otherwise.
 */
bool parse_GNRMC(const char *buffer, RMC_Data *r) {// only time and date
	const char *line = strstr(buffer, "$GNRMC");
	if (!line) return false;
     22c:	80 e0       	ldi	r24, 0x00	; 0
     22e:	01 c0       	rjmp	.+2      	; 0x232 <parse_GNRMC+0x104>
	char copy[NMEA_BUFFER_SIZE];
	strncpy(copy, line, sizeof(copy) - 1);
	copy[sizeof(copy) - 1] = '\0';
	char *fields[15] = {0};
	int count = split_fields(copy, fields, 15);
	if (count < 10) return false;
     230:	80 e0       	ldi	r24, 0x00	; 0
		strcpy(r->utc, "00:00:00");
	}
	if (fields[9]) strncpy(r->date, fields[9], sizeof(r->date));
	else r->date[0] = '\0';
	return true;
}
     232:	c6 5a       	subi	r28, 0xA6	; 166
     234:	df 4f       	sbci	r29, 0xFF	; 255
     236:	cd bf       	out	0x3d, r28	; 61
     238:	de bf       	out	0x3e, r29	; 62
     23a:	df 91       	pop	r29
     23c:	cf 91       	pop	r28
     23e:	1f 91       	pop	r17
     240:	0f 91       	pop	r16
     242:	08 95       	ret

00000244 <display_gps_date_and_time>:


void display_gps_date_and_time(AllGPSData *data) {
     244:	0f 93       	push	r16
     246:	1f 93       	push	r17
     248:	cf 93       	push	r28
     24a:	df 93       	push	r29
     24c:	ec 01       	movw	r28, r24

	memset(data, 0, sizeof(AllGPSData));
     24e:	85 e1       	ldi	r24, 0x15	; 21
     250:	fe 01       	movw	r30, r28
     252:	11 92       	st	Z+, r1
     254:	8a 95       	dec	r24
     256:	e9 f7       	brne	.-6      	; 0x252 <display_gps_date_and_time+0xe>
	if (strstr(buffer, "$GNRMC") && parse_GNRMC(buffer, &data->rmc)) {
     258:	60 e0       	ldi	r22, 0x00	; 0
     25a:	70 e6       	ldi	r23, 0x60	; 96
     25c:	8c e4       	ldi	r24, 0x4C	; 76
     25e:	94 e6       	ldi	r25, 0x64	; 100
     260:	0e 94 1c 06 	call	0xc38	; 0xc38 <strstr>
     264:	89 2b       	or	r24, r25
     266:	49 f0       	breq	.+18     	; 0x27a <display_gps_date_and_time+0x36>
     268:	be 01       	movw	r22, r28
     26a:	8c e4       	ldi	r24, 0x4C	; 76
     26c:	94 e6       	ldi	r25, 0x64	; 100
     26e:	0e 94 97 00 	call	0x12e	; 0x12e <parse_GNRMC>
     272:	88 23       	and	r24, r24
     274:	11 f0       	breq	.+4      	; 0x27a <display_gps_date_and_time+0x36>
		data->has_rmc = true;
     276:	81 e0       	ldi	r24, 0x01	; 1
     278:	8c 8b       	std	Y+20, r24	; 0x14
	}
	st7735_draw_text(0, 16 ,"laikas:", GREEN, BLACK);
     27a:	00 e0       	ldi	r16, 0x00	; 0
     27c:	10 e0       	ldi	r17, 0x00	; 0
     27e:	20 ee       	ldi	r18, 0xE0	; 224
     280:	37 e0       	ldi	r19, 0x07	; 7
     282:	4f e1       	ldi	r20, 0x1F	; 31
     284:	50 e6       	ldi	r21, 0x60	; 96
     286:	60 e1       	ldi	r22, 0x10	; 16
     288:	70 e0       	ldi	r23, 0x00	; 0
     28a:	80 e0       	ldi	r24, 0x00	; 0
     28c:	90 e0       	ldi	r25, 0x00	; 0
     28e:	0e 94 e6 04 	call	0x9cc	; 0x9cc <st7735_draw_text>
	st7735_draw_text(48, 16 ,data->rmc.date, GREEN, BLACK);
     292:	ae 01       	movw	r20, r28
     294:	45 5f       	subi	r20, 0xF5	; 245
     296:	5f 4f       	sbci	r21, 0xFF	; 255
     298:	20 ee       	ldi	r18, 0xE0	; 224
     29a:	37 e0       	ldi	r19, 0x07	; 7
     29c:	60 e1       	ldi	r22, 0x10	; 16
     29e:	70 e0       	ldi	r23, 0x00	; 0
     2a0:	80 e3       	ldi	r24, 0x30	; 48
     2a2:	90 e0       	ldi	r25, 0x00	; 0
     2a4:	0e 94 e6 04 	call	0x9cc	; 0x9cc <st7735_draw_text>
	st7735_draw_text(0, 24 ,"data:", GREEN, BLACK);
     2a8:	20 ee       	ldi	r18, 0xE0	; 224
     2aa:	37 e0       	ldi	r19, 0x07	; 7
     2ac:	47 e2       	ldi	r20, 0x27	; 39
     2ae:	50 e6       	ldi	r21, 0x60	; 96
     2b0:	68 e1       	ldi	r22, 0x18	; 24
     2b2:	70 e0       	ldi	r23, 0x00	; 0
     2b4:	80 e0       	ldi	r24, 0x00	; 0
     2b6:	90 e0       	ldi	r25, 0x00	; 0
     2b8:	0e 94 e6 04 	call	0x9cc	; 0x9cc <st7735_draw_text>
	st7735_draw_text(48, 24 ,data->rmc.utc, GREEN, BLACK);
     2bc:	20 ee       	ldi	r18, 0xE0	; 224
     2be:	37 e0       	ldi	r19, 0x07	; 7
     2c0:	ae 01       	movw	r20, r28
     2c2:	68 e1       	ldi	r22, 0x18	; 24
     2c4:	70 e0       	ldi	r23, 0x00	; 0
     2c6:	80 e3       	ldi	r24, 0x30	; 48
     2c8:	90 e0       	ldi	r25, 0x00	; 0
     2ca:	0e 94 e6 04 	call	0x9cc	; 0x9cc <st7735_draw_text>

}
     2ce:	df 91       	pop	r29
     2d0:	cf 91       	pop	r28
     2d2:	1f 91       	pop	r17
     2d4:	0f 91       	pop	r16
     2d6:	08 95       	ret

000002d8 <BK280_Data_Read>:
 * This function fills the global `buffer` with all NMEA sentences starting from
 * the first detected $GNRMC sentence and ending after a $GNGLL sentence (terminated by CRLF).
 *
 * @note Uses a blocking read approach with `USART0_readChar()`.
 */
void BK280_Data_Read(void) {
     2d8:	0f 93       	push	r16
     2da:	1f 93       	push	r17
     2dc:	cf 93       	push	r28
     2de:	df 93       	push	r29
	uint16_t index = 0;
	bool capturing = false;
	static const char target[] = "$GNRMC";
	uint8_t match_index = 0;
     2e0:	10 e0       	ldi	r17, 0x00	; 0
 *
 * @note Uses a blocking read approach with `USART0_readChar()`.
 */
void BK280_Data_Read(void) {
	uint16_t index = 0;
	bool capturing = false;
     2e2:	00 e0       	ldi	r16, 0x00	; 0
 * the first detected $GNRMC sentence and ending after a $GNGLL sentence (terminated by CRLF).
 *
 * @note Uses a blocking read approach with `USART0_readChar()`.
 */
void BK280_Data_Read(void) {
	uint16_t index = 0;
     2e4:	c0 e0       	ldi	r28, 0x00	; 0
     2e6:	d0 e0       	ldi	r29, 0x00	; 0
	bool capturing = false;
	static const char target[] = "$GNRMC";
	uint8_t match_index = 0;

	while (1) {
		char c = USART0_readChar();
     2e8:	0e 94 34 05 	call	0xa68	; 0xa68 <USART0_readChar>

		if (!capturing) {
     2ec:	01 11       	cpse	r16, r1
     2ee:	1a c0       	rjmp	.+52     	; 0x324 <BK280_Data_Read+0x4c>
			if (c == target[match_index]) {
     2f0:	e1 2f       	mov	r30, r17
     2f2:	f0 e0       	ldi	r31, 0x00	; 0
     2f4:	e3 5d       	subi	r30, 0xD3	; 211
     2f6:	ff 49       	sbci	r31, 0x9F	; 159
     2f8:	90 81       	ld	r25, Z
     2fa:	89 13       	cpse	r24, r25
     2fc:	11 c0       	rjmp	.+34     	; 0x320 <BK280_Data_Read+0x48>
				match_index++;
     2fe:	1f 5f       	subi	r17, 0xFF	; 255
				if (match_index == sizeof(target) - 1) {
     300:	16 30       	cpi	r17, 0x06	; 6
     302:	91 f7       	brne	.-28     	; 0x2e8 <BK280_Data_Read+0x10>
					capturing = true;
					index = 0;
					memcpy(buffer, target, sizeof(target) - 1);
     304:	86 e0       	ldi	r24, 0x06	; 6
     306:	ed e2       	ldi	r30, 0x2D	; 45
     308:	f0 e6       	ldi	r31, 0x60	; 96
     30a:	ac e4       	ldi	r26, 0x4C	; 76
     30c:	b4 e6       	ldi	r27, 0x64	; 100
     30e:	01 90       	ld	r0, Z+
     310:	0d 92       	st	X+, r0
     312:	8a 95       	dec	r24
     314:	e1 f7       	brne	.-8      	; 0x30e <BK280_Data_Read+0x36>
					index = sizeof(target) - 1;
					match_index = 0;
     316:	10 e0       	ldi	r17, 0x00	; 0

		if (!capturing) {
			if (c == target[match_index]) {
				match_index++;
				if (match_index == sizeof(target) - 1) {
					capturing = true;
     318:	01 e0       	ldi	r16, 0x01	; 1
					index = 0;
					memcpy(buffer, target, sizeof(target) - 1);
					index = sizeof(target) - 1;
     31a:	c6 e0       	ldi	r28, 0x06	; 6
     31c:	d0 e0       	ldi	r29, 0x00	; 0
     31e:	e4 cf       	rjmp	.-56     	; 0x2e8 <BK280_Data_Read+0x10>
					match_index = 0;
				}
				} else {
				match_index = 0;
     320:	10 e0       	ldi	r17, 0x00	; 0
			}
			continue;
     322:	e2 cf       	rjmp	.-60     	; 0x2e8 <BK280_Data_Read+0x10>
		}

		// Jeigu jau fiksuojam eilutæ — dedam á buferá
		if (index < NMEA_BUFFER_SIZE - 1)
     324:	cb 33       	cpi	r28, 0x3B	; 59
     326:	d1 05       	cpc	r29, r1
     328:	28 f4       	brcc	.+10     	; 0x334 <BK280_Data_Read+0x5c>
		buffer[index++] = c;
     32a:	fe 01       	movw	r30, r28
     32c:	e4 5b       	subi	r30, 0xB4	; 180
     32e:	fb 49       	sbci	r31, 0x9B	; 155
     330:	80 83       	st	Z, r24
     332:	21 96       	adiw	r28, 0x01	; 1

		// NMEA eilutë baigiasi \r\n
		if (c == '\n' && index >= 2 && buffer[index - 2] == '\r') {
     334:	8a 30       	cpi	r24, 0x0A	; 10
     336:	69 f4       	brne	.+26     	; 0x352 <BK280_Data_Read+0x7a>
     338:	c2 30       	cpi	r28, 0x02	; 2
     33a:	d1 05       	cpc	r29, r1
     33c:	50 f0       	brcs	.+20     	; 0x352 <BK280_Data_Read+0x7a>
     33e:	fe 01       	movw	r30, r28
     340:	e6 5b       	subi	r30, 0xB6	; 182
     342:	fb 49       	sbci	r31, 0x9B	; 155
     344:	80 81       	ld	r24, Z
     346:	8d 30       	cpi	r24, 0x0D	; 13
     348:	21 f4       	brne	.+8      	; 0x352 <BK280_Data_Read+0x7a>
			buffer[index] = '\0';
     34a:	c4 5b       	subi	r28, 0xB4	; 180
     34c:	db 49       	sbci	r29, 0x9B	; 155
     34e:	18 82       	st	Y, r1
			break;
     350:	05 c0       	rjmp	.+10     	; 0x35c <BK280_Data_Read+0x84>
		}

		// Apsauga, jei buferis perpildomas
		if (index >= NMEA_BUFFER_SIZE - 1) {
     352:	cb 33       	cpi	r28, 0x3B	; 59
     354:	d1 05       	cpc	r29, r1
     356:	40 f2       	brcs	.-112    	; 0x2e8 <BK280_Data_Read+0x10>
			buffer[NMEA_BUFFER_SIZE - 1] = '\0';
     358:	10 92 87 64 	sts	0x6487, r1	; 0x806487 <__data_end+0x3b>
			break;
		}
	}
}
     35c:	df 91       	pop	r29
     35e:	cf 91       	pop	r28
     360:	1f 91       	pop	r17
     362:	0f 91       	pop	r16
     364:	08 95       	ret

00000366 <CLOCK_INHF_clock_init>:
	{};
	/* Configuration complete;*/
}

void CLOCK_INHF_clock_init() {
	ccp_write_io((uint8_t *) &CLKCTRL.OSCHFCTRLA, CLKCTRL_FRQSEL_24M_gc); ///< Set oscillator frequency to 24 MHz.
     366:	64 e2       	ldi	r22, 0x24	; 36
     368:	88 e6       	ldi	r24, 0x68	; 104
     36a:	90 e0       	ldi	r25, 0x00	; 0
     36c:	0e 94 23 09 	call	0x1246	; 0x1246 <ccp_write_io>
	// ccp_write_io((uint8_t *) &CLKCTRL.MCLKCTRLB, CLKCTRL_PDIV_2X_gc | CLKCTRL_PEN_bm); ///< Enable clock prescaler if needed (currently not used).
	ccp_write_io((uint8_t *) &CLKCTRL.MCLKCTRLA, CLKCTRL_CLKSEL_OSCHF_gc/* | CLKCTRL_CLKOUT_bm*/); ///< Set the internal 24 MHz oscillator as the main clock source, with optional clock output on PA4.
     370:	60 e0       	ldi	r22, 0x00	; 0
     372:	80 e6       	ldi	r24, 0x60	; 96
     374:	90 e0       	ldi	r25, 0x00	; 0
     376:	0e 94 23 09 	call	0x1246	; 0x1246 <ccp_write_io>
	while (CLKCTRL.MCLKSTATUS & CLKCTRL_SOSC_bm) {}; ///< Wait for oscillator switch to be completed.
     37a:	80 91 65 00 	lds	r24, 0x0065	; 0x800065 <__TEXT_REGION_LENGTH__+0x7f0065>
     37e:	80 fd       	sbrc	r24, 0
     380:	fc cf       	rjmp	.-8      	; 0x37a <CLOCK_INHF_clock_init+0x14>
     382:	08 95       	ret

00000384 <GPIO_init>:

#include "Settings.h"

void GPIO_init(){
    // Configure USART0 and USART1 pin routing
    PORTMUX.USARTROUTEA = PORTMUX_USART1_DEFAULT_gc /*| PORTMUX_USART0_ALT2_gc*/; // Set USART0 to alternative pins set default
     384:	e0 ee       	ldi	r30, 0xE0	; 224
     386:	f5 e0       	ldi	r31, 0x05	; 5
     388:	12 82       	std	Z+2, r1	; 0x02
	PORTMUX.SPIROUTEA = PORTMUX_SPI0_DEFAULT_gc;
     38a:	15 82       	std	Z+5, r1	; 0x05
	
	// PA4=MOSI, PA6=SCK, PA7=CS kaip out
	PORTA.DIRSET = PIN2_bm | PIN3_bm | PIN4_bm | PIN6_bm | PIN7_bm;
     38c:	e0 e0       	ldi	r30, 0x00	; 0
     38e:	f4 e0       	ldi	r31, 0x04	; 4
     390:	8c ed       	ldi	r24, 0xDC	; 220
     392:	81 83       	std	Z+1, r24	; 0x01
	//PD2=DC, PD3=RES
	PORTD.DIRSET = PIN2_bm | PIN3_bm; //screen DC and RES
     394:	a0 e6       	ldi	r26, 0x60	; 96
     396:	b4 e0       	ldi	r27, 0x04	; 4
     398:	8c e0       	ldi	r24, 0x0C	; 12
     39a:	11 96       	adiw	r26, 0x01	; 1
     39c:	8c 93       	st	X, r24
     39e:	11 97       	sbiw	r26, 0x01	; 1

	PORTD.DIRSET = PIN4_bm | PIN7_bm; //USART0 RS485 TX, XDIR 
     3a0:	80 e9       	ldi	r24, 0x90	; 144
     3a2:	11 96       	adiw	r26, 0x01	; 1
     3a4:	8c 93       	st	X, r24
     3a6:	11 97       	sbiw	r26, 0x01	; 1
	PORTD.DIRCLR = PIN5_bm; //USART0 RS485 RX
     3a8:	80 e2       	ldi	r24, 0x20	; 32
     3aa:	12 96       	adiw	r26, 0x02	; 2
     3ac:	8c 93       	st	X, r24
     3ae:	12 97       	sbiw	r26, 0x02	; 2
	PORTD.PIN4CTRL = PORT_PULLUPEN_bm; // Enable pull-up(USART0 RX485 TX)
     3b0:	88 e0       	ldi	r24, 0x08	; 8
     3b2:	54 96       	adiw	r26, 0x14	; 20
     3b4:	8c 93       	st	X, r24
     3b6:	54 97       	sbiw	r26, 0x14	; 20
	PORTD.PIN5CTRL = PORT_PULLUPEN_bm; // Enable pull-up(USART0 RX485 RX)
     3b8:	55 96       	adiw	r26, 0x15	; 21
     3ba:	8c 93       	st	X, r24

	PORTA.DIRSET = PIN2_bm; //USART0 GNSS TX
     3bc:	94 e0       	ldi	r25, 0x04	; 4
     3be:	91 83       	std	Z+1, r25	; 0x01
	PORTA.DIRCLR = PIN3_bm; //USART0 GNSS RX
     3c0:	82 83       	std	Z+2, r24	; 0x02
	PORTA.PIN2CTRL = PORT_PULLUPEN_bm; // Enable pull-up(USART0 GNSS TX)
     3c2:	82 8b       	std	Z+18, r24	; 0x12
	PORTA.PIN3CTRL = PORT_PULLUPEN_bm; // Enable pull-up(USART0 GNSS RX)
     3c4:	83 8b       	std	Z+19, r24	; 0x13


	PORTC.DIRSET = PIN0_bm; //USART1 TX
     3c6:	e0 e4       	ldi	r30, 0x40	; 64
     3c8:	f4 e0       	ldi	r31, 0x04	; 4
     3ca:	91 e0       	ldi	r25, 0x01	; 1
     3cc:	91 83       	std	Z+1, r25	; 0x01
	PORTC.DIRCLR = PIN1_bm; //USART1 RX
     3ce:	92 e0       	ldi	r25, 0x02	; 2
     3d0:	92 83       	std	Z+2, r25	; 0x02
	PORTC.PIN0CTRL = PORT_PULLUPEN_bm; // Enable pull-up(USART1 TX)
     3d2:	80 8b       	std	Z+16, r24	; 0x10
	PORTC.PIN1CTRL = PORT_PULLUPEN_bm; // Enable pull-up(USART1 RX)
     3d4:	81 8b       	std	Z+17, r24	; 0x11
     3d6:	08 95       	ret

000003d8 <main>:
 */ 
#include "Settings.h"

int main()
{
	CLOCK_INHF_clock_init();
     3d8:	0e 94 b3 01 	call	0x366	; 0x366 <CLOCK_INHF_clock_init>
	GPIO_init();
     3dc:	0e 94 c2 01 	call	0x384	; 0x384 <GPIO_init>
	SPI0_init();
     3e0:	0e 94 b8 02 	call	0x570	; 0x570 <SPI0_init>
	USART0_init(GNSS_module);
     3e4:	80 e0       	ldi	r24, 0x00	; 0
     3e6:	0e 94 12 05 	call	0xa24	; 0xa24 <USART0_init>
	USART1_init();
     3ea:	0e 94 93 05 	call	0xb26	; 0xb26 <USART1_init>
	lcd_init();
     3ee:	0e 94 0a 03 	call	0x614	; 0x614 <lcd_init>
	lcd_fill_color(RED);
     3f2:	80 e0       	ldi	r24, 0x00	; 0
     3f4:	98 ef       	ldi	r25, 0xF8	; 248
     3f6:	0e 94 37 04 	call	0x86e	; 0x86e <lcd_fill_color>
	#else
		//round up by default
		__ticks_dc = (uint32_t)(ceil(fabs(__tmp)));
	#endif

	__builtin_avr_delay_cycles(__ticks_dc);
     3fa:	2f ef       	ldi	r18, 0xFF	; 255
     3fc:	3c e2       	ldi	r19, 0x2C	; 44
     3fe:	81 e3       	ldi	r24, 0x31	; 49
     400:	91 e0       	ldi	r25, 0x01	; 1
     402:	21 50       	subi	r18, 0x01	; 1
     404:	30 40       	sbci	r19, 0x00	; 0
     406:	80 40       	sbci	r24, 0x00	; 0
     408:	90 40       	sbci	r25, 0x00	; 0
     40a:	d9 f7       	brne	.-10     	; 0x402 <__LOCK_REGION_LENGTH__+0x2>
     40c:	00 c0       	rjmp	.+0      	; 0x40e <__LOCK_REGION_LENGTH__+0xe>
     40e:	00 00       	nop
	_delay_ms(5000);
	lcd_fill_color(YELLOW);
     410:	80 ee       	ldi	r24, 0xE0	; 224
     412:	9f ef       	ldi	r25, 0xFF	; 255
     414:	0e 94 37 04 	call	0x86e	; 0x86e <lcd_fill_color>
     418:	2f ef       	ldi	r18, 0xFF	; 255
     41a:	3c e2       	ldi	r19, 0x2C	; 44
     41c:	81 e3       	ldi	r24, 0x31	; 49
     41e:	91 e0       	ldi	r25, 0x01	; 1
     420:	21 50       	subi	r18, 0x01	; 1
     422:	30 40       	sbci	r19, 0x00	; 0
     424:	80 40       	sbci	r24, 0x00	; 0
     426:	90 40       	sbci	r25, 0x00	; 0
     428:	d9 f7       	brne	.-10     	; 0x420 <__LOCK_REGION_LENGTH__+0x20>
     42a:	00 c0       	rjmp	.+0      	; 0x42c <__LOCK_REGION_LENGTH__+0x2c>
     42c:	00 00       	nop
	_delay_ms(5000);
	lcd_fill_color(GREEN);
     42e:	80 ee       	ldi	r24, 0xE0	; 224
     430:	97 e0       	ldi	r25, 0x07	; 7
     432:	0e 94 37 04 	call	0x86e	; 0x86e <lcd_fill_color>
     436:	2f ef       	ldi	r18, 0xFF	; 255
     438:	3c e2       	ldi	r19, 0x2C	; 44
     43a:	81 e3       	ldi	r24, 0x31	; 49
     43c:	91 e0       	ldi	r25, 0x01	; 1
     43e:	21 50       	subi	r18, 0x01	; 1
     440:	30 40       	sbci	r19, 0x00	; 0
     442:	80 40       	sbci	r24, 0x00	; 0
     444:	90 40       	sbci	r25, 0x00	; 0
     446:	d9 f7       	brne	.-10     	; 0x43e <__LOCK_REGION_LENGTH__+0x3e>
     448:	00 c0       	rjmp	.+0      	; 0x44a <__LOCK_REGION_LENGTH__+0x4a>
     44a:	00 00       	nop
	_delay_ms(5000);
	lcd_fill_color(BLACK);
     44c:	80 e0       	ldi	r24, 0x00	; 0
     44e:	90 e0       	ldi	r25, 0x00	; 0
     450:	0e 94 37 04 	call	0x86e	; 0x86e <lcd_fill_color>
// USART_printf(1, "ATE0&W\r\n"); //rodo tik ok
// SIM800LUARTReceiver();



USART_printf(1, "AT\r\n");
     454:	84 e3       	ldi	r24, 0x34	; 52
     456:	90 e6       	ldi	r25, 0x60	; 96
     458:	9f 93       	push	r25
     45a:	8f 93       	push	r24
     45c:	c1 e0       	ldi	r28, 0x01	; 1
     45e:	cf 93       	push	r28
     460:	0e 94 c3 05 	call	0xb86	; 0xb86 <USART_printf>
     464:	2f ef       	ldi	r18, 0xFF	; 255
     466:	3b e7       	ldi	r19, 0x7B	; 123
     468:	82 e9       	ldi	r24, 0x92	; 146
     46a:	21 50       	subi	r18, 0x01	; 1
     46c:	30 40       	sbci	r19, 0x00	; 0
     46e:	80 40       	sbci	r24, 0x00	; 0
     470:	e1 f7       	brne	.-8      	; 0x46a <__LOCK_REGION_LENGTH__+0x6a>
     472:	00 c0       	rjmp	.+0      	; 0x474 <__LOCK_REGION_LENGTH__+0x74>
     474:	00 00       	nop
//
//USART_printf(1, "AT+SAPBR=0,1\r\n");   // iðjungiam, jei aktyvus
//
//_delay_ms(2000);

USART_printf(1, "AT+SAPBR=3,1,\"CONTYPE\",\"GPRS\"\r\n");
     476:	89 e3       	ldi	r24, 0x39	; 57
     478:	90 e6       	ldi	r25, 0x60	; 96
     47a:	9f 93       	push	r25
     47c:	8f 93       	push	r24
     47e:	cf 93       	push	r28
     480:	0e 94 c3 05 	call	0xb86	; 0xb86 <USART_printf>
     484:	9f e7       	ldi	r25, 0x7F	; 127
     486:	29 ea       	ldi	r18, 0xA9	; 169
     488:	33 e0       	ldi	r19, 0x03	; 3
     48a:	91 50       	subi	r25, 0x01	; 1
     48c:	20 40       	sbci	r18, 0x00	; 0
     48e:	30 40       	sbci	r19, 0x00	; 0
     490:	e1 f7       	brne	.-8      	; 0x48a <__LOCK_REGION_LENGTH__+0x8a>
     492:	00 c0       	rjmp	.+0      	; 0x494 <__LOCK_REGION_LENGTH__+0x94>
     494:	00 00       	nop

_delay_ms(50);

//USART_printf(1, "AT+SAPBR=3,1,\"APN\",\"internet.tele2.lt\"\r\n");
USART_printf(1, "AT+CSTT=\"internet.tele2.lt\",\"wap\",\"wap\"\r\n");
     496:	89 e5       	ldi	r24, 0x59	; 89
     498:	90 e6       	ldi	r25, 0x60	; 96
     49a:	9f 93       	push	r25
     49c:	8f 93       	push	r24
     49e:	cf 93       	push	r28
     4a0:	0e 94 c3 05 	call	0xb86	; 0xb86 <USART_printf>
     4a4:	8f e7       	ldi	r24, 0x7F	; 127
     4a6:	99 ea       	ldi	r25, 0xA9	; 169
     4a8:	23 e0       	ldi	r18, 0x03	; 3
     4aa:	81 50       	subi	r24, 0x01	; 1
     4ac:	90 40       	sbci	r25, 0x00	; 0
     4ae:	20 40       	sbci	r18, 0x00	; 0
     4b0:	e1 f7       	brne	.-8      	; 0x4aa <__LOCK_REGION_LENGTH__+0xaa>
     4b2:	00 c0       	rjmp	.+0      	; 0x4b4 <__LOCK_REGION_LENGTH__+0xb4>
     4b4:	00 00       	nop

_delay_ms(50);

USART_printf(1, "AT+SAPBR=1,1\r\n");
     4b6:	83 e8       	ldi	r24, 0x83	; 131
     4b8:	90 e6       	ldi	r25, 0x60	; 96
     4ba:	9f 93       	push	r25
     4bc:	8f 93       	push	r24
     4be:	cf 93       	push	r28
     4c0:	0e 94 c3 05 	call	0xb86	; 0xb86 <USART_printf>
     4c4:	3f e7       	ldi	r19, 0x7F	; 127
     4c6:	89 ea       	ldi	r24, 0xA9	; 169
     4c8:	93 e0       	ldi	r25, 0x03	; 3
     4ca:	31 50       	subi	r19, 0x01	; 1
     4cc:	80 40       	sbci	r24, 0x00	; 0
     4ce:	90 40       	sbci	r25, 0x00	; 0
     4d0:	e1 f7       	brne	.-8      	; 0x4ca <__LOCK_REGION_LENGTH__+0xca>
     4d2:	00 c0       	rjmp	.+0      	; 0x4d4 <__LOCK_REGION_LENGTH__+0xd4>
     4d4:	00 00       	nop

/*
USART_printf(1, "AT+HTTPTERM\r\n"); // iðvalyti ankstesnius seansus
_delay_ms(2000);*/

USART_printf(1, "AT+HTTPINIT\r\n");
     4d6:	82 e9       	ldi	r24, 0x92	; 146
     4d8:	90 e6       	ldi	r25, 0x60	; 96
     4da:	9f 93       	push	r25
     4dc:	8f 93       	push	r24
     4de:	cf 93       	push	r28
     4e0:	0e 94 c3 05 	call	0xb86	; 0xb86 <USART_printf>
     4e4:	2f e7       	ldi	r18, 0x7F	; 127
     4e6:	39 ea       	ldi	r19, 0xA9	; 169
     4e8:	83 e0       	ldi	r24, 0x03	; 3
     4ea:	21 50       	subi	r18, 0x01	; 1
     4ec:	30 40       	sbci	r19, 0x00	; 0
     4ee:	80 40       	sbci	r24, 0x00	; 0
     4f0:	e1 f7       	brne	.-8      	; 0x4ea <__LOCK_REGION_LENGTH__+0xea>
     4f2:	00 c0       	rjmp	.+0      	; 0x4f4 <__LOCK_REGION_LENGTH__+0xf4>
     4f4:	00 00       	nop

_delay_ms(50);

USART_printf(1, "AT+HTTPPARA=\"CID\",1\r\n");
     4f6:	80 ea       	ldi	r24, 0xA0	; 160
     4f8:	90 e6       	ldi	r25, 0x60	; 96
     4fa:	9f 93       	push	r25
     4fc:	8f 93       	push	r24
     4fe:	cf 93       	push	r28
     500:	0e 94 c3 05 	call	0xb86	; 0xb86 <USART_printf>
     504:	9f e7       	ldi	r25, 0x7F	; 127
     506:	29 ea       	ldi	r18, 0xA9	; 169
     508:	33 e0       	ldi	r19, 0x03	; 3
     50a:	91 50       	subi	r25, 0x01	; 1
     50c:	20 40       	sbci	r18, 0x00	; 0
     50e:	30 40       	sbci	r19, 0x00	; 0
     510:	e1 f7       	brne	.-8      	; 0x50a <__LOCK_REGION_LENGTH__+0x10a>
     512:	00 c0       	rjmp	.+0      	; 0x514 <__LOCK_REGION_LENGTH__+0x114>
     514:	00 00       	nop

_delay_ms(50);

USART_printf(1, "AT+HTTPPARA=\"URL\",\"http://yoururl.com//index.php?data=[59880E9510A01240A41B108ED29040108F2]\"\r\n");
     516:	86 eb       	ldi	r24, 0xB6	; 182
     518:	90 e6       	ldi	r25, 0x60	; 96
     51a:	9f 93       	push	r25
     51c:	8f 93       	push	r24
     51e:	cf 93       	push	r28
     520:	0e 94 c3 05 	call	0xb86	; 0xb86 <USART_printf>
     524:	8f e7       	ldi	r24, 0x7F	; 127
     526:	99 ea       	ldi	r25, 0xA9	; 169
     528:	23 e0       	ldi	r18, 0x03	; 3
     52a:	81 50       	subi	r24, 0x01	; 1
     52c:	90 40       	sbci	r25, 0x00	; 0
     52e:	20 40       	sbci	r18, 0x00	; 0
     530:	e1 f7       	brne	.-8      	; 0x52a <__LOCK_REGION_LENGTH__+0x12a>
     532:	00 c0       	rjmp	.+0      	; 0x534 <__LOCK_REGION_LENGTH__+0x134>
     534:	00 00       	nop

_delay_ms(50);

USART_printf(1, "AT+HTTPACTION=0\r\n");
     536:	85 e1       	ldi	r24, 0x15	; 21
     538:	91 e6       	ldi	r25, 0x61	; 97
     53a:	9f 93       	push	r25
     53c:	8f 93       	push	r24
     53e:	cf 93       	push	r28
     540:	0e 94 c3 05 	call	0xb86	; 0xb86 <USART_printf>
     544:	3f e7       	ldi	r19, 0x7F	; 127
     546:	89 ea       	ldi	r24, 0xA9	; 169
     548:	93 e0       	ldi	r25, 0x03	; 3
     54a:	31 50       	subi	r19, 0x01	; 1
     54c:	80 40       	sbci	r24, 0x00	; 0
     54e:	90 40       	sbci	r25, 0x00	; 0
     550:	e1 f7       	brne	.-8      	; 0x54a <__LOCK_REGION_LENGTH__+0x14a>
     552:	00 c0       	rjmp	.+0      	; 0x554 <__LOCK_REGION_LENGTH__+0x154>
     554:	00 00       	nop
     556:	2d b7       	in	r18, 0x3d	; 61
     558:	3e b7       	in	r19, 0x3e	; 62
     55a:	28 5e       	subi	r18, 0xE8	; 232
     55c:	3f 4f       	sbci	r19, 0xFF	; 255
     55e:	2d bf       	out	0x3d, r18	; 61
     560:	3e bf       	out	0x3e, r19	; 62
	{
/*
		USART_printf(1, "ATI\r\n");
		SIM800LUARTReceiver();*/
		
		BK280_Data_Read();
     562:	0e 94 6c 01 	call	0x2d8	; 0x2d8 <BK280_Data_Read>
		display_gps_date_and_time(&ALLGNSSDATA);
     566:	88 e8       	ldi	r24, 0x88	; 136
     568:	94 e6       	ldi	r25, 0x64	; 100
     56a:	0e 94 22 01 	call	0x244	; 0x244 <display_gps_date_and_time>
     56e:	f9 cf       	rjmp	.-14     	; 0x562 <__LOCK_REGION_LENGTH__+0x162>

00000570 <SPI0_init>:
    SPI0_Start(); // Pull SS low to initiate communication
    SPI0.DATA = data_storage; // Send the data
    while (!(SPI0.INTFLAGS & SPI_IF_bm)) {} // Wait until data is exchanged
    SPI0_Stop(); // Pull SS high to terminate communication
    return SPI0.DATA; // Return the received data
}
     570:	e0 e4       	ldi	r30, 0x40	; 64
     572:	f9 e0       	ldi	r31, 0x09	; 9
     574:	81 e3       	ldi	r24, 0x31	; 49
     576:	80 83       	st	Z, r24
     578:	84 e0       	ldi	r24, 0x04	; 4
     57a:	81 83       	std	Z+1, r24	; 0x01
     57c:	08 95       	ret

0000057e <SPI0_write>:

void SPI0_write(uint8_t data) {
	SPI0.DATA = data;
     57e:	80 93 44 09 	sts	0x0944, r24	; 0x800944 <__TEXT_REGION_LENGTH__+0x7f0944>
	while (!(SPI0.INTFLAGS & SPI_IF_bm));
     582:	80 91 43 09 	lds	r24, 0x0943	; 0x800943 <__TEXT_REGION_LENGTH__+0x7f0943>
     586:	88 23       	and	r24, r24
     588:	e4 f7       	brge	.-8      	; 0x582 <SPI0_write+0x4>
}
     58a:	08 95       	ret

0000058c <SPI0_write_16>:
 *
 * Sends the high byte first, followed by the low byte, using `spi_tft_write()`.
 *
 * @param data 16-bit data to send.
 */
void SPI0_write_16(uint16_t data) {
     58c:	cf 93       	push	r28
     58e:	c8 2f       	mov	r28, r24
	 SPI0_write(data >> 8);
     590:	89 2f       	mov	r24, r25
     592:	0e 94 bf 02 	call	0x57e	; 0x57e <SPI0_write>
	 SPI0_write(data & 0xFF);
     596:	8c 2f       	mov	r24, r28
     598:	0e 94 bf 02 	call	0x57e	; 0x57e <SPI0_write>
 }
     59c:	cf 91       	pop	r28
     59e:	08 95       	ret

000005a0 <lcd_write_cmd>:
#include "Settings.h"
#include "ST7735Var.h"
#include "font5x7.h"

// ---- LCD write helpers ----
void lcd_write_cmd(uint8_t cmd) {
     5a0:	1f 93       	push	r17
     5a2:	cf 93       	push	r28
     5a4:	df 93       	push	r29
	DC_LOW();
     5a6:	94 e0       	ldi	r25, 0x04	; 4
     5a8:	90 93 66 04 	sts	0x0466, r25	; 0x800466 <__TEXT_REGION_LENGTH__+0x7f0466>
	CS_LOW();
     5ac:	c0 e0       	ldi	r28, 0x00	; 0
     5ae:	d4 e0       	ldi	r29, 0x04	; 4
     5b0:	10 e8       	ldi	r17, 0x80	; 128
     5b2:	1e 83       	std	Y+6, r17	; 0x06
	SPI0_write(cmd);
     5b4:	0e 94 bf 02 	call	0x57e	; 0x57e <SPI0_write>
	CS_HIGH();
     5b8:	1d 83       	std	Y+5, r17	; 0x05
}
     5ba:	df 91       	pop	r29
     5bc:	cf 91       	pop	r28
     5be:	1f 91       	pop	r17
     5c0:	08 95       	ret

000005c2 <lcd_write_data>:

void lcd_write_data(uint8_t data) {
     5c2:	1f 93       	push	r17
     5c4:	cf 93       	push	r28
     5c6:	df 93       	push	r29
	DC_HIGH();
     5c8:	94 e0       	ldi	r25, 0x04	; 4
     5ca:	90 93 65 04 	sts	0x0465, r25	; 0x800465 <__TEXT_REGION_LENGTH__+0x7f0465>
	CS_LOW();
     5ce:	c0 e0       	ldi	r28, 0x00	; 0
     5d0:	d4 e0       	ldi	r29, 0x04	; 4
     5d2:	10 e8       	ldi	r17, 0x80	; 128
     5d4:	1e 83       	std	Y+6, r17	; 0x06
	SPI0_write(data);
     5d6:	0e 94 bf 02 	call	0x57e	; 0x57e <SPI0_write>
	CS_HIGH();
     5da:	1d 83       	std	Y+5, r17	; 0x05
}
     5dc:	df 91       	pop	r29
     5de:	cf 91       	pop	r28
     5e0:	1f 91       	pop	r17
     5e2:	08 95       	ret

000005e4 <reset_display>:

void reset_display() {
	RES_LOW();
     5e4:	e0 e6       	ldi	r30, 0x60	; 96
     5e6:	f4 e0       	ldi	r31, 0x04	; 4
     5e8:	88 e0       	ldi	r24, 0x08	; 8
     5ea:	86 83       	std	Z+6, r24	; 0x06
     5ec:	2f ef       	ldi	r18, 0xFF	; 255
     5ee:	3d ee       	ldi	r19, 0xED	; 237
     5f0:	92 e0       	ldi	r25, 0x02	; 2
     5f2:	21 50       	subi	r18, 0x01	; 1
     5f4:	30 40       	sbci	r19, 0x00	; 0
     5f6:	90 40       	sbci	r25, 0x00	; 0
     5f8:	e1 f7       	brne	.-8      	; 0x5f2 <reset_display+0xe>
     5fa:	00 c0       	rjmp	.+0      	; 0x5fc <reset_display+0x18>
     5fc:	00 00       	nop
	_delay_ms(40);
	RES_HIGH();
     5fe:	85 83       	std	Z+5, r24	; 0x05
     600:	2f ef       	ldi	r18, 0xFF	; 255
     602:	35 ea       	ldi	r19, 0xA5	; 165
     604:	8e e0       	ldi	r24, 0x0E	; 14
     606:	21 50       	subi	r18, 0x01	; 1
     608:	30 40       	sbci	r19, 0x00	; 0
     60a:	80 40       	sbci	r24, 0x00	; 0
     60c:	e1 f7       	brne	.-8      	; 0x606 <reset_display+0x22>
     60e:	00 c0       	rjmp	.+0      	; 0x610 <reset_display+0x2c>
     610:	00 00       	nop
     612:	08 95       	ret

00000614 <lcd_init>:
 *    For ST7735S modules 0x05 is standard for RGB565.
 *  - MADCTL (0x36) controls rotation/flipping and RGB/BGR order. See comment near MADCTL usage.
 */
void lcd_init(void) {
	// Hardware reset: ensure controller starts from known state
	reset_display(); // toggles RES and waits (your reset_display already does delays)
     614:	0e 94 f2 02 	call	0x5e4	; 0x5e4 <reset_display>

	// 1) Exit sleep mode
	// Command 0x11 (Sleep OUT) wakes the display from sleep.
	// After this command the controller needs time to stabilize before further commands.
	lcd_write_cmd(0x11);
     618:	81 e1       	ldi	r24, 0x11	; 17
     61a:	0e 94 d0 02 	call	0x5a0	; 0x5a0 <lcd_write_cmd>
     61e:	2f ef       	ldi	r18, 0xFF	; 255
     620:	89 ec       	ldi	r24, 0xC9	; 201
     622:	98 e0       	ldi	r25, 0x08	; 8
     624:	21 50       	subi	r18, 0x01	; 1
     626:	80 40       	sbci	r24, 0x00	; 0
     628:	90 40       	sbci	r25, 0x00	; 0
     62a:	e1 f7       	brne	.-8      	; 0x624 <lcd_init+0x10>
     62c:	00 c0       	rjmp	.+0      	; 0x62e <lcd_init+0x1a>
     62e:	00 00       	nop
	_delay_ms(120); // required wait after sleep out (typical 120ms)

	// 2) Frame rate / display timing setup (B1, B2, B3)
	// These affect the PLL/frame frequency and image flicker/contrast.
	// Values here are common defaults from ST7735S appendix — vendor may tweak.
	lcd_write_cmd(0xB1); // Frame rate control (in normal mode)
     630:	81 eb       	ldi	r24, 0xB1	; 177
     632:	0e 94 d0 02 	call	0x5a0	; 0x5a0 <lcd_write_cmd>
	// B1: [osc], [rt], [f] (vendor semantics vary) — typical sequence uses {0x05,0x3C,0x3C}
	lcd_write_data(0x05);
     636:	85 e0       	ldi	r24, 0x05	; 5
     638:	0e 94 e1 02 	call	0x5c2	; 0x5c2 <lcd_write_data>
	lcd_write_data(0x3C);
     63c:	8c e3       	ldi	r24, 0x3C	; 60
     63e:	0e 94 e1 02 	call	0x5c2	; 0x5c2 <lcd_write_data>
	lcd_write_data(0x3C);
     642:	8c e3       	ldi	r24, 0x3C	; 60
     644:	0e 94 e1 02 	call	0x5c2	; 0x5c2 <lcd_write_data>

	lcd_write_cmd(0xB2); // Frame rate control (in idle mode)
     648:	82 eb       	ldi	r24, 0xB2	; 178
     64a:	0e 94 d0 02 	call	0x5a0	; 0x5a0 <lcd_write_cmd>
	lcd_write_data(0x05);
     64e:	85 e0       	ldi	r24, 0x05	; 5
     650:	0e 94 e1 02 	call	0x5c2	; 0x5c2 <lcd_write_data>
	lcd_write_data(0x3C);
     654:	8c e3       	ldi	r24, 0x3C	; 60
     656:	0e 94 e1 02 	call	0x5c2	; 0x5c2 <lcd_write_data>
	lcd_write_data(0x3C);
     65a:	8c e3       	ldi	r24, 0x3C	; 60
     65c:	0e 94 e1 02 	call	0x5c2	; 0x5c2 <lcd_write_data>

	lcd_write_cmd(0xB3); // Frame rate control (partial mode, different sequence)
     660:	83 eb       	ldi	r24, 0xB3	; 179
     662:	0e 94 d0 02 	call	0x5a0	; 0x5a0 <lcd_write_cmd>
	// For some controllers B3 has 6 parameters (two triplets for different clocks)
	lcd_write_data(0x05);
     666:	85 e0       	ldi	r24, 0x05	; 5
     668:	0e 94 e1 02 	call	0x5c2	; 0x5c2 <lcd_write_data>
	lcd_write_data(0x3C);
     66c:	8c e3       	ldi	r24, 0x3C	; 60
     66e:	0e 94 e1 02 	call	0x5c2	; 0x5c2 <lcd_write_data>
	lcd_write_data(0x3C);
     672:	8c e3       	ldi	r24, 0x3C	; 60
     674:	0e 94 e1 02 	call	0x5c2	; 0x5c2 <lcd_write_data>
	lcd_write_data(0x05);
     678:	85 e0       	ldi	r24, 0x05	; 5
     67a:	0e 94 e1 02 	call	0x5c2	; 0x5c2 <lcd_write_data>
	lcd_write_data(0x3C);
     67e:	8c e3       	ldi	r24, 0x3C	; 60
     680:	0e 94 e1 02 	call	0x5c2	; 0x5c2 <lcd_write_data>
	lcd_write_data(0x3C);
     684:	8c e3       	ldi	r24, 0x3C	; 60
     686:	0e 94 e1 02 	call	0x5c2	; 0x5c2 <lcd_write_data>

	// 3) Inversion control
	// 0xB4 configures display inversion (dot inversion, line inversion, etc.)
	// 0x03 is a commonly used value; other values change inversion scheme.
	lcd_write_cmd(0xB4);
     68a:	84 eb       	ldi	r24, 0xB4	; 180
     68c:	0e 94 d0 02 	call	0x5a0	; 0x5a0 <lcd_write_cmd>
	lcd_write_data(0x03);
     690:	83 e0       	ldi	r24, 0x03	; 3
     692:	0e 94 e1 02 	call	0x5c2	; 0x5c2 <lcd_write_data>

	// 4) Power control / voltage settings (C0..C5)
	// These commands set internal voltages (VCI, VGH, VGL, VCOM) used by the panel.
	// Wrong values => poor contrast, unstable image, or no image.
	lcd_write_cmd(0xC0); // Power control 1
     696:	80 ec       	ldi	r24, 0xC0	; 192
     698:	0e 94 d0 02 	call	0x5a0	; 0x5a0 <lcd_write_cmd>
	lcd_write_data(0x28);
     69c:	88 e2       	ldi	r24, 0x28	; 40
     69e:	0e 94 e1 02 	call	0x5c2	; 0x5c2 <lcd_write_data>
	lcd_write_data(0x08);
     6a2:	88 e0       	ldi	r24, 0x08	; 8
     6a4:	0e 94 e1 02 	call	0x5c2	; 0x5c2 <lcd_write_data>
	lcd_write_data(0x04);
     6a8:	84 e0       	ldi	r24, 0x04	; 4
     6aa:	0e 94 e1 02 	call	0x5c2	; 0x5c2 <lcd_write_data>

	lcd_write_cmd(0xC1); // Power control 2
     6ae:	81 ec       	ldi	r24, 0xC1	; 193
     6b0:	0e 94 d0 02 	call	0x5a0	; 0x5a0 <lcd_write_cmd>
	lcd_write_data(0xC0); // often a single parameter
     6b4:	80 ec       	ldi	r24, 0xC0	; 192
     6b6:	0e 94 e1 02 	call	0x5c2	; 0x5c2 <lcd_write_data>

	lcd_write_cmd(0xC2); // Power control 3 (sometimes used for injection)
     6ba:	82 ec       	ldi	r24, 0xC2	; 194
     6bc:	0e 94 d0 02 	call	0x5a0	; 0x5a0 <lcd_write_cmd>
	lcd_write_data(0x0D);
     6c0:	8d e0       	ldi	r24, 0x0D	; 13
     6c2:	0e 94 e1 02 	call	0x5c2	; 0x5c2 <lcd_write_data>
	lcd_write_data(0x00);
     6c6:	80 e0       	ldi	r24, 0x00	; 0
     6c8:	0e 94 e1 02 	call	0x5c2	; 0x5c2 <lcd_write_data>

	lcd_write_cmd(0xC3); // Power control 4 (VGH, VGL adjustments)
     6cc:	83 ec       	ldi	r24, 0xC3	; 195
     6ce:	0e 94 d0 02 	call	0x5a0	; 0x5a0 <lcd_write_cmd>
	lcd_write_data(0x8D);
     6d2:	8d e8       	ldi	r24, 0x8D	; 141
     6d4:	0e 94 e1 02 	call	0x5c2	; 0x5c2 <lcd_write_data>
	lcd_write_data(0x2A);
     6d8:	8a e2       	ldi	r24, 0x2A	; 42
     6da:	0e 94 e1 02 	call	0x5c2	; 0x5c2 <lcd_write_data>

	lcd_write_cmd(0xC4); // Power control 5
     6de:	84 ec       	ldi	r24, 0xC4	; 196
     6e0:	0e 94 d0 02 	call	0x5a0	; 0x5a0 <lcd_write_cmd>
	lcd_write_data(0x8D);
     6e4:	8d e8       	ldi	r24, 0x8D	; 141
     6e6:	0e 94 e1 02 	call	0x5c2	; 0x5c2 <lcd_write_data>
	lcd_write_data(0xEE);
     6ea:	8e ee       	ldi	r24, 0xEE	; 238
     6ec:	0e 94 e1 02 	call	0x5c2	; 0x5c2 <lcd_write_data>

	lcd_write_cmd(0xC5); // VCOM control (VCOM setting)
     6f0:	85 ec       	ldi	r24, 0xC5	; 197
     6f2:	0e 94 d0 02 	call	0x5a0	; 0x5a0 <lcd_write_cmd>
	lcd_write_data(0x1A); // tweak this if contrast/VCOM artifacts appear
     6f6:	8a e1       	ldi	r24, 0x1A	; 26
     6f8:	0e 94 e1 02 	call	0x5c2	; 0x5c2 <lcd_write_data>
	//  - 0x08 => BGR order (if your colors are swapped, set this)
	//  - 0x60 => MX+MV (rotate 90)
	//  - 0xA0 => MY+MV (rotate other directions)
	//
	// Choose based on how your module is mounted. If colors look swapped R<->B, flip the RGB bit.
	lcd_write_cmd(0x36);
     6fc:	86 e3       	ldi	r24, 0x36	; 54
     6fe:	0e 94 d0 02 	call	0x5a0	; 0x5a0 <lcd_write_cmd>
	lcd_write_data(0xC0); // Normal orientation, RGB ordering
     702:	80 ec       	ldi	r24, 0xC0	; 192
     704:	0e 94 e1 02 	call	0x5c2	; 0x5c2 <lcd_write_data>
	//  - 0x04 = 16-bit/pixel (sometimes vendor-specific)
	//  - 0x05 = 16-bit/pixel (RGB565)   <- most common for ST7735S
	//  - 0x06 = 18-bit/pixel (6-6-6)
	//
	// Use 0x05 for 16-bit RGB565 (your write_data16 expects this).
	lcd_write_cmd(0x3A);
     708:	8a e3       	ldi	r24, 0x3A	; 58
     70a:	0e 94 d0 02 	call	0x5a0	; 0x5a0 <lcd_write_cmd>
	lcd_write_data(0x05);
     70e:	85 e0       	ldi	r24, 0x05	; 5
     710:	0e 94 e1 02 	call	0x5c2	; 0x5c2 <lcd_write_data>

	// 7) Gamma correction (E0/E1)
	// Gamma curves affect color balance and contrast. The sequences are long arrays.
	// If colors/contrast look off, try alternate gamma tables from datasheet.
	// Here we use a common pair (you can paste the full arrays from the datasheet / appendix).
	lcd_write_cmd(0xE0); // Positive gamma correction
     714:	80 ee       	ldi	r24, 0xE0	; 224
     716:	0e 94 d0 02 	call	0x5a0	; 0x5a0 <lcd_write_cmd>
	// Example small set (datasheet usually gives 16 bytes). Replace with full table if needed:
	lcd_write_data(0x04);
     71a:	84 e0       	ldi	r24, 0x04	; 4
     71c:	0e 94 e1 02 	call	0x5c2	; 0x5c2 <lcd_write_data>
	lcd_write_data(0x22);
     720:	82 e2       	ldi	r24, 0x22	; 34
     722:	0e 94 e1 02 	call	0x5c2	; 0x5c2 <lcd_write_data>
	lcd_write_data(0x07);
     726:	87 e0       	ldi	r24, 0x07	; 7
     728:	0e 94 e1 02 	call	0x5c2	; 0x5c2 <lcd_write_data>
	lcd_write_data(0x0A);
     72c:	8a e0       	ldi	r24, 0x0A	; 10
     72e:	0e 94 e1 02 	call	0x5c2	; 0x5c2 <lcd_write_data>
	lcd_write_data(0x2E);
     732:	8e e2       	ldi	r24, 0x2E	; 46
     734:	0e 94 e1 02 	call	0x5c2	; 0x5c2 <lcd_write_data>
	lcd_write_data(0x30);
     738:	80 e3       	ldi	r24, 0x30	; 48
     73a:	0e 94 e1 02 	call	0x5c2	; 0x5c2 <lcd_write_data>
	lcd_write_data(0x25);
     73e:	85 e2       	ldi	r24, 0x25	; 37
     740:	0e 94 e1 02 	call	0x5c2	; 0x5c2 <lcd_write_data>
	lcd_write_data(0x2A);
     744:	8a e2       	ldi	r24, 0x2A	; 42
     746:	0e 94 e1 02 	call	0x5c2	; 0x5c2 <lcd_write_data>
	lcd_write_data(0x28);
     74a:	88 e2       	ldi	r24, 0x28	; 40
     74c:	0e 94 e1 02 	call	0x5c2	; 0x5c2 <lcd_write_data>
	lcd_write_data(0x26);
     750:	86 e2       	ldi	r24, 0x26	; 38
     752:	0e 94 e1 02 	call	0x5c2	; 0x5c2 <lcd_write_data>
	lcd_write_data(0x2E);
     756:	8e e2       	ldi	r24, 0x2E	; 46
     758:	0e 94 e1 02 	call	0x5c2	; 0x5c2 <lcd_write_data>
	lcd_write_data(0x3A);
     75c:	8a e3       	ldi	r24, 0x3A	; 58
     75e:	0e 94 e1 02 	call	0x5c2	; 0x5c2 <lcd_write_data>
	lcd_write_data(0x00);
     762:	80 e0       	ldi	r24, 0x00	; 0
     764:	0e 94 e1 02 	call	0x5c2	; 0x5c2 <lcd_write_data>
	lcd_write_data(0x01);
     768:	81 e0       	ldi	r24, 0x01	; 1
     76a:	0e 94 e1 02 	call	0x5c2	; 0x5c2 <lcd_write_data>
	lcd_write_data(0x03);
     76e:	83 e0       	ldi	r24, 0x03	; 3
     770:	0e 94 e1 02 	call	0x5c2	; 0x5c2 <lcd_write_data>
	lcd_write_data(0x13);
     774:	83 e1       	ldi	r24, 0x13	; 19
     776:	0e 94 e1 02 	call	0x5c2	; 0x5c2 <lcd_write_data>

	lcd_write_cmd(0xE1); // Negative gamma correction
     77a:	81 ee       	ldi	r24, 0xE1	; 225
     77c:	0e 94 d0 02 	call	0x5a0	; 0x5a0 <lcd_write_cmd>
	lcd_write_data(0x04);
     780:	84 e0       	ldi	r24, 0x04	; 4
     782:	0e 94 e1 02 	call	0x5c2	; 0x5c2 <lcd_write_data>
	lcd_write_data(0x16);
     786:	86 e1       	ldi	r24, 0x16	; 22
     788:	0e 94 e1 02 	call	0x5c2	; 0x5c2 <lcd_write_data>
	lcd_write_data(0x06);
     78c:	86 e0       	ldi	r24, 0x06	; 6
     78e:	0e 94 e1 02 	call	0x5c2	; 0x5c2 <lcd_write_data>
	lcd_write_data(0x0D);
     792:	8d e0       	ldi	r24, 0x0D	; 13
     794:	0e 94 e1 02 	call	0x5c2	; 0x5c2 <lcd_write_data>
	lcd_write_data(0x2D);
     798:	8d e2       	ldi	r24, 0x2D	; 45
     79a:	0e 94 e1 02 	call	0x5c2	; 0x5c2 <lcd_write_data>
	lcd_write_data(0x26);
     79e:	86 e2       	ldi	r24, 0x26	; 38
     7a0:	0e 94 e1 02 	call	0x5c2	; 0x5c2 <lcd_write_data>
	lcd_write_data(0x23);
     7a4:	83 e2       	ldi	r24, 0x23	; 35
     7a6:	0e 94 e1 02 	call	0x5c2	; 0x5c2 <lcd_write_data>
	lcd_write_data(0x27);
     7aa:	87 e2       	ldi	r24, 0x27	; 39
     7ac:	0e 94 e1 02 	call	0x5c2	; 0x5c2 <lcd_write_data>
	lcd_write_data(0x27);
     7b0:	87 e2       	ldi	r24, 0x27	; 39
     7b2:	0e 94 e1 02 	call	0x5c2	; 0x5c2 <lcd_write_data>
	lcd_write_data(0x25);
     7b6:	85 e2       	ldi	r24, 0x25	; 37
     7b8:	0e 94 e1 02 	call	0x5c2	; 0x5c2 <lcd_write_data>
	lcd_write_data(0x2D);
     7bc:	8d e2       	ldi	r24, 0x2D	; 45
     7be:	0e 94 e1 02 	call	0x5c2	; 0x5c2 <lcd_write_data>
	lcd_write_data(0x3B);
     7c2:	8b e3       	ldi	r24, 0x3B	; 59
     7c4:	0e 94 e1 02 	call	0x5c2	; 0x5c2 <lcd_write_data>
	lcd_write_data(0x00);
     7c8:	80 e0       	ldi	r24, 0x00	; 0
     7ca:	0e 94 e1 02 	call	0x5c2	; 0x5c2 <lcd_write_data>
	lcd_write_data(0x01);
     7ce:	81 e0       	ldi	r24, 0x01	; 1
     7d0:	0e 94 e1 02 	call	0x5c2	; 0x5c2 <lcd_write_data>
	lcd_write_data(0x04);
     7d4:	84 e0       	ldi	r24, 0x04	; 4
     7d6:	0e 94 e1 02 	call	0x5c2	; 0x5c2 <lcd_write_data>
	lcd_write_data(0x13);
     7da:	83 e1       	ldi	r24, 0x13	; 19
     7dc:	0e 94 e1 02 	call	0x5c2	; 0x5c2 <lcd_write_data>
	// doesn't start at 0,0 in panel memory (common offsets: 0 or a few pixels).
	// If your drawing is shifted, adjust offsets here (0x2A and 0x2B).
	// Typical for 128x160 there's no offset, so we skip a forced CASET/RASET here.

	// 9) Finally, turn display ON
	lcd_write_cmd(0x29); // Display ON
     7e0:	89 e2       	ldi	r24, 0x29	; 41
     7e2:	0e 94 d0 02 	call	0x5a0	; 0x5a0 <lcd_write_cmd>
     7e6:	2f ef       	ldi	r18, 0xFF	; 255
     7e8:	86 e7       	ldi	r24, 0x76	; 118
     7ea:	91 e0       	ldi	r25, 0x01	; 1
     7ec:	21 50       	subi	r18, 0x01	; 1
     7ee:	80 40       	sbci	r24, 0x00	; 0
     7f0:	90 40       	sbci	r25, 0x00	; 0
     7f2:	e1 f7       	brne	.-8      	; 0x7ec <lcd_init+0x1d8>
     7f4:	00 c0       	rjmp	.+0      	; 0x7f6 <lcd_init+0x1e2>
     7f6:	00 00       	nop
     7f8:	08 95       	ret

000007fa <lcd_set_address>:
}



// ---- Helper spalvai uþpildyti visà ekranà ----
void lcd_set_address(uint16_t x0, uint16_t y0, uint16_t x1, uint16_t y1) {
     7fa:	cf 92       	push	r12
     7fc:	df 92       	push	r13
     7fe:	ef 92       	push	r14
     800:	ff 92       	push	r15
     802:	0f 93       	push	r16
     804:	1f 93       	push	r17
     806:	cf 93       	push	r28
     808:	df 93       	push	r29
     80a:	d8 2e       	mov	r13, r24
     80c:	c9 2e       	mov	r12, r25
     80e:	16 2f       	mov	r17, r22
     810:	07 2f       	mov	r16, r23
     812:	f4 2e       	mov	r15, r20
     814:	e5 2e       	mov	r14, r21
     816:	c2 2f       	mov	r28, r18
     818:	d3 2f       	mov	r29, r19
	lcd_write_cmd(0x2A); // CASET
     81a:	8a e2       	ldi	r24, 0x2A	; 42
     81c:	0e 94 d0 02 	call	0x5a0	; 0x5a0 <lcd_write_cmd>
	lcd_write_data(x0 >> 8); lcd_write_data(x0 & 0xFF);
     820:	8c 2d       	mov	r24, r12
     822:	0e 94 e1 02 	call	0x5c2	; 0x5c2 <lcd_write_data>
     826:	8d 2d       	mov	r24, r13
     828:	0e 94 e1 02 	call	0x5c2	; 0x5c2 <lcd_write_data>
	lcd_write_data(x1 >> 8); lcd_write_data(x1 & 0xFF);
     82c:	8e 2d       	mov	r24, r14
     82e:	0e 94 e1 02 	call	0x5c2	; 0x5c2 <lcd_write_data>
     832:	8f 2d       	mov	r24, r15
     834:	0e 94 e1 02 	call	0x5c2	; 0x5c2 <lcd_write_data>

	lcd_write_cmd(0x2B); // RASET
     838:	8b e2       	ldi	r24, 0x2B	; 43
     83a:	0e 94 d0 02 	call	0x5a0	; 0x5a0 <lcd_write_cmd>
	lcd_write_data(y0 >> 8); lcd_write_data(y0 & 0xFF);
     83e:	80 2f       	mov	r24, r16
     840:	0e 94 e1 02 	call	0x5c2	; 0x5c2 <lcd_write_data>
     844:	81 2f       	mov	r24, r17
     846:	0e 94 e1 02 	call	0x5c2	; 0x5c2 <lcd_write_data>
	lcd_write_data(y1 >> 8); lcd_write_data(y1 & 0xFF);
     84a:	8d 2f       	mov	r24, r29
     84c:	0e 94 e1 02 	call	0x5c2	; 0x5c2 <lcd_write_data>
     850:	8c 2f       	mov	r24, r28
     852:	0e 94 e1 02 	call	0x5c2	; 0x5c2 <lcd_write_data>

	lcd_write_cmd(0x2C); // RAMWR
     856:	8c e2       	ldi	r24, 0x2C	; 44
     858:	0e 94 d0 02 	call	0x5a0	; 0x5a0 <lcd_write_cmd>
}
     85c:	df 91       	pop	r29
     85e:	cf 91       	pop	r28
     860:	1f 91       	pop	r17
     862:	0f 91       	pop	r16
     864:	ff 90       	pop	r15
     866:	ef 90       	pop	r14
     868:	df 90       	pop	r13
     86a:	cf 90       	pop	r12
     86c:	08 95       	ret

0000086e <lcd_fill_color>:


void lcd_fill_color(uint16_t color) {
     86e:	cf 92       	push	r12
     870:	df 92       	push	r13
     872:	ef 92       	push	r14
     874:	ff 92       	push	r15
     876:	cf 93       	push	r28
     878:	df 93       	push	r29
     87a:	ec 01       	movw	r28, r24
	uint32_t pixels = ST7735_WIDTH * ST7735_HEIGHT; // viso pikseliø
	lcd_set_address(0, 0, ST7735_WIDTH -1, ST7735_HEIGHT -1);
     87c:	2f e9       	ldi	r18, 0x9F	; 159
     87e:	30 e0       	ldi	r19, 0x00	; 0
     880:	4f e7       	ldi	r20, 0x7F	; 127
     882:	50 e0       	ldi	r21, 0x00	; 0
     884:	60 e0       	ldi	r22, 0x00	; 0
     886:	70 e0       	ldi	r23, 0x00	; 0
     888:	80 e0       	ldi	r24, 0x00	; 0
     88a:	90 e0       	ldi	r25, 0x00	; 0
     88c:	0e 94 fd 03 	call	0x7fa	; 0x7fa <lcd_set_address>
	DC_HIGH();
     890:	84 e0       	ldi	r24, 0x04	; 4
     892:	80 93 65 04 	sts	0x0465, r24	; 0x800465 <__TEXT_REGION_LENGTH__+0x7f0465>
	CS_LOW();
     896:	80 e8       	ldi	r24, 0x80	; 128
     898:	80 93 06 04 	sts	0x0406, r24	; 0x800406 <__TEXT_REGION_LENGTH__+0x7f0406>
	for (uint32_t i = 0; i < pixels; i++) {
     89c:	c1 2c       	mov	r12, r1
     89e:	d1 2c       	mov	r13, r1
     8a0:	76 01       	movw	r14, r12
     8a2:	08 c0       	rjmp	.+16     	; 0x8b4 <lcd_fill_color+0x46>
		SPI0_write_16(color);
     8a4:	ce 01       	movw	r24, r28
     8a6:	0e 94 c6 02 	call	0x58c	; 0x58c <SPI0_write_16>
void lcd_fill_color(uint16_t color) {
	uint32_t pixels = ST7735_WIDTH * ST7735_HEIGHT; // viso pikseliø
	lcd_set_address(0, 0, ST7735_WIDTH -1, ST7735_HEIGHT -1);
	DC_HIGH();
	CS_LOW();
	for (uint32_t i = 0; i < pixels; i++) {
     8aa:	8f ef       	ldi	r24, 0xFF	; 255
     8ac:	c8 1a       	sub	r12, r24
     8ae:	d8 0a       	sbc	r13, r24
     8b0:	e8 0a       	sbc	r14, r24
     8b2:	f8 0a       	sbc	r15, r24
     8b4:	c1 14       	cp	r12, r1
     8b6:	80 e5       	ldi	r24, 0x50	; 80
     8b8:	d8 06       	cpc	r13, r24
     8ba:	e1 04       	cpc	r14, r1
     8bc:	f1 04       	cpc	r15, r1
     8be:	90 f3       	brcs	.-28     	; 0x8a4 <lcd_fill_color+0x36>
		SPI0_write_16(color);
	}
	CS_HIGH();
     8c0:	80 e8       	ldi	r24, 0x80	; 128
     8c2:	80 93 05 04 	sts	0x0405, r24	; 0x800405 <__TEXT_REGION_LENGTH__+0x7f0405>
}
     8c6:	df 91       	pop	r29
     8c8:	cf 91       	pop	r28
     8ca:	ff 90       	pop	r15
     8cc:	ef 90       	pop	r14
     8ce:	df 90       	pop	r13
     8d0:	cf 90       	pop	r12
     8d2:	08 95       	ret

000008d4 <st7735_draw_pixel>:
 * 
 * @param x X coordinate (0..ST7735_WIDTH-1).
 * @param y Y coordinate (0..ST7735_HEIGHT-1).
 * @param color 16-bit RGB565 color.
 */
void st7735_draw_pixel(uint16_t x, uint16_t y, uint16_t color) {
     8d4:	ef 92       	push	r14
     8d6:	ff 92       	push	r15
     8d8:	1f 93       	push	r17
     8da:	cf 93       	push	r28
     8dc:	df 93       	push	r29
	if (x >= ST7735_WIDTH || y >= ST7735_HEIGHT) return;
     8de:	80 38       	cpi	r24, 0x80	; 128
     8e0:	91 05       	cpc	r25, r1
     8e2:	98 f4       	brcc	.+38     	; 0x90a <st7735_draw_pixel+0x36>
     8e4:	60 3a       	cpi	r22, 0xA0	; 160
     8e6:	71 05       	cpc	r23, r1
     8e8:	80 f4       	brcc	.+32     	; 0x90a <st7735_draw_pixel+0x36>
     8ea:	7a 01       	movw	r14, r20
	lcd_set_address(x, y, x, y);
     8ec:	9b 01       	movw	r18, r22
     8ee:	ac 01       	movw	r20, r24
     8f0:	0e 94 fd 03 	call	0x7fa	; 0x7fa <lcd_set_address>
	DC_HIGH();    // Ájungiam „data“ reþimà
     8f4:	84 e0       	ldi	r24, 0x04	; 4
     8f6:	80 93 65 04 	sts	0x0465, r24	; 0x800465 <__TEXT_REGION_LENGTH__+0x7f0465>
	CS_LOW();     // Aktyvuojam LCD
     8fa:	c0 e0       	ldi	r28, 0x00	; 0
     8fc:	d4 e0       	ldi	r29, 0x04	; 4
     8fe:	10 e8       	ldi	r17, 0x80	; 128
     900:	1e 83       	std	Y+6, r17	; 0x06
	SPI0_write_16(color);
     902:	c7 01       	movw	r24, r14
     904:	0e 94 c6 02 	call	0x58c	; 0x58c <SPI0_write_16>
	CS_HIGH();    // Iðjungiam LCD
     908:	1d 83       	std	Y+5, r17	; 0x05
}
     90a:	df 91       	pop	r29
     90c:	cf 91       	pop	r28
     90e:	1f 91       	pop	r17
     910:	ff 90       	pop	r15
     912:	ef 90       	pop	r14
     914:	08 95       	ret

00000916 <st7735_draw_char>:
 * @param c Character to draw.
 * @param fg Foreground color (RGB565).
 * @param bg Background color (RGB565).
 */

void st7735_draw_char(int x, int y, char c, uint16_t fg, uint16_t bg) {
     916:	5f 92       	push	r5
     918:	6f 92       	push	r6
     91a:	7f 92       	push	r7
     91c:	8f 92       	push	r8
     91e:	9f 92       	push	r9
     920:	af 92       	push	r10
     922:	bf 92       	push	r11
     924:	cf 92       	push	r12
     926:	df 92       	push	r13
     928:	ef 92       	push	r14
     92a:	ff 92       	push	r15
     92c:	0f 93       	push	r16
     92e:	1f 93       	push	r17
     930:	cf 93       	push	r28
     932:	df 93       	push	r29
     934:	5c 01       	movw	r10, r24
     936:	4b 01       	movw	r8, r22
     938:	e2 2e       	mov	r14, r18
     93a:	53 2e       	mov	r5, r19
	if (c < 32 || c > 127) c = '?';
     93c:	80 ee       	ldi	r24, 0xE0	; 224
     93e:	84 0f       	add	r24, r20
     940:	80 36       	cpi	r24, 0x60	; 96
     942:	08 f0       	brcs	.+2      	; 0x946 <st7735_draw_char+0x30>
     944:	4f e3       	ldi	r20, 0x3F	; 63
	const uint8_t *chr_data = font5x7[c - 32];
     946:	50 e0       	ldi	r21, 0x00	; 0
     948:	40 52       	subi	r20, 0x20	; 32
     94a:	51 09       	sbc	r21, r1
     94c:	3a 01       	movw	r6, r20
     94e:	66 0c       	add	r6, r6
     950:	77 1c       	adc	r7, r7
     952:	66 0c       	add	r6, r6
     954:	77 1c       	adc	r7, r7
     956:	46 0d       	add	r20, r6
     958:	57 1d       	adc	r21, r7
     95a:	ca 01       	movw	r24, r20
     95c:	89 5d       	subi	r24, 0xD9	; 217
     95e:	9e 49       	sbci	r25, 0x9E	; 158
     960:	3c 01       	movw	r6, r24
	for (int i = 0; i < 5; i++) { // plotis
     962:	c1 2c       	mov	r12, r1
     964:	d1 2c       	mov	r13, r1
     966:	1e c0       	rjmp	.+60     	; 0x9a4 <st7735_draw_char+0x8e>
		uint8_t line = chr_data[i];
     968:	f3 01       	movw	r30, r6
     96a:	ec 0d       	add	r30, r12
     96c:	fd 1d       	adc	r31, r13
     96e:	f0 80       	ld	r15, Z
		for (int j = 0; j < 7; j++) { // aukðtis
     970:	c0 e0       	ldi	r28, 0x00	; 0
     972:	d0 e0       	ldi	r29, 0x00	; 0
     974:	11 c0       	rjmp	.+34     	; 0x998 <st7735_draw_char+0x82>
			uint16_t color = (line & 0x01) ? fg : bg;
     976:	f0 fe       	sbrs	r15, 0
     978:	03 c0       	rjmp	.+6      	; 0x980 <st7735_draw_char+0x6a>
     97a:	4e 2d       	mov	r20, r14
     97c:	55 2d       	mov	r21, r5
     97e:	02 c0       	rjmp	.+4      	; 0x984 <st7735_draw_char+0x6e>
     980:	40 2f       	mov	r20, r16
     982:	51 2f       	mov	r21, r17
			st7735_draw_pixel(x + i, y + j, color);
     984:	be 01       	movw	r22, r28
     986:	68 0d       	add	r22, r8
     988:	79 1d       	adc	r23, r9
     98a:	c6 01       	movw	r24, r12
     98c:	8a 0d       	add	r24, r10
     98e:	9b 1d       	adc	r25, r11
     990:	0e 94 6a 04 	call	0x8d4	; 0x8d4 <st7735_draw_pixel>
			line >>= 1;
     994:	f6 94       	lsr	r15
void st7735_draw_char(int x, int y, char c, uint16_t fg, uint16_t bg) {
	if (c < 32 || c > 127) c = '?';
	const uint8_t *chr_data = font5x7[c - 32];
	for (int i = 0; i < 5; i++) { // plotis
		uint8_t line = chr_data[i];
		for (int j = 0; j < 7; j++) { // aukðtis
     996:	21 96       	adiw	r28, 0x01	; 1
     998:	c7 30       	cpi	r28, 0x07	; 7
     99a:	d1 05       	cpc	r29, r1
     99c:	64 f3       	brlt	.-40     	; 0x976 <st7735_draw_char+0x60>
 */

void st7735_draw_char(int x, int y, char c, uint16_t fg, uint16_t bg) {
	if (c < 32 || c > 127) c = '?';
	const uint8_t *chr_data = font5x7[c - 32];
	for (int i = 0; i < 5; i++) { // plotis
     99e:	9f ef       	ldi	r25, 0xFF	; 255
     9a0:	c9 1a       	sub	r12, r25
     9a2:	d9 0a       	sbc	r13, r25
     9a4:	85 e0       	ldi	r24, 0x05	; 5
     9a6:	c8 16       	cp	r12, r24
     9a8:	d1 04       	cpc	r13, r1
     9aa:	f4 f2       	brlt	.-68     	; 0x968 <st7735_draw_char+0x52>
			uint16_t color = (line & 0x01) ? fg : bg;
			st7735_draw_pixel(x + i, y + j, color);
			line >>= 1;
		}
	}
}
     9ac:	df 91       	pop	r29
     9ae:	cf 91       	pop	r28
     9b0:	1f 91       	pop	r17
     9b2:	0f 91       	pop	r16
     9b4:	ff 90       	pop	r15
     9b6:	ef 90       	pop	r14
     9b8:	df 90       	pop	r13
     9ba:	cf 90       	pop	r12
     9bc:	bf 90       	pop	r11
     9be:	af 90       	pop	r10
     9c0:	9f 90       	pop	r9
     9c2:	8f 90       	pop	r8
     9c4:	7f 90       	pop	r7
     9c6:	6f 90       	pop	r6
     9c8:	5f 90       	pop	r5
     9ca:	08 95       	ret

000009cc <st7735_draw_text>:
 * @param y Starting Y coordinate.
 * @param str Null-terminated string to draw.
 * @param fg Foreground color (RGB565).
 * @param bg Background color (RGB565).
 */
void st7735_draw_text(int x, int y, const char *str, uint16_t fg, uint16_t bg) {
     9cc:	8f 92       	push	r8
     9ce:	9f 92       	push	r9
     9d0:	af 92       	push	r10
     9d2:	bf 92       	push	r11
     9d4:	cf 92       	push	r12
     9d6:	df 92       	push	r13
     9d8:	ef 92       	push	r14
     9da:	ff 92       	push	r15
     9dc:	0f 93       	push	r16
     9de:	1f 93       	push	r17
     9e0:	cf 93       	push	r28
     9e2:	df 93       	push	r29
     9e4:	7c 01       	movw	r14, r24
     9e6:	4b 01       	movw	r8, r22
     9e8:	ea 01       	movw	r28, r20
     9ea:	59 01       	movw	r10, r18
     9ec:	68 01       	movw	r12, r16
	while (*str) {
     9ee:	0a c0       	rjmp	.+20     	; 0xa04 <st7735_draw_text+0x38>
		st7735_draw_char(x, y, *str++, fg, bg);
     9f0:	21 96       	adiw	r28, 0x01	; 1
     9f2:	86 01       	movw	r16, r12
     9f4:	95 01       	movw	r18, r10
     9f6:	b4 01       	movw	r22, r8
     9f8:	c7 01       	movw	r24, r14
     9fa:	0e 94 8b 04 	call	0x916	; 0x916 <st7735_draw_char>
		x += 6; // Character width + spacing
     9fe:	86 e0       	ldi	r24, 0x06	; 6
     a00:	e8 0e       	add	r14, r24
     a02:	f1 1c       	adc	r15, r1
 * @param str Null-terminated string to draw.
 * @param fg Foreground color (RGB565).
 * @param bg Background color (RGB565).
 */
void st7735_draw_text(int x, int y, const char *str, uint16_t fg, uint16_t bg) {
	while (*str) {
     a04:	48 81       	ld	r20, Y
     a06:	41 11       	cpse	r20, r1
     a08:	f3 cf       	rjmp	.-26     	; 0x9f0 <st7735_draw_text+0x24>
		st7735_draw_char(x, y, *str++, fg, bg);
		x += 6; // Character width + spacing
	}
}
     a0a:	df 91       	pop	r29
     a0c:	cf 91       	pop	r28
     a0e:	1f 91       	pop	r17
     a10:	0f 91       	pop	r16
     a12:	ff 90       	pop	r15
     a14:	ef 90       	pop	r14
     a16:	df 90       	pop	r13
     a18:	cf 90       	pop	r12
     a1a:	bf 90       	pop	r11
     a1c:	af 90       	pop	r10
     a1e:	9f 90       	pop	r9
     a20:	8f 90       	pop	r8
     a22:	08 95       	ret

00000a24 <USART0_init>:
			SIM800L.lost_signal_fault = true;
			break; //just exit from this while cycle
		}
	}
	return USART1.RXDATAL; // Return received character
}
     a24:	90 91 e2 05 	lds	r25, 0x05E2	; 0x8005e2 <__TEXT_REGION_LENGTH__+0x7f05e2>
     a28:	98 7f       	andi	r25, 0xF8	; 248
     a2a:	88 23       	and	r24, r24
     a2c:	11 f0       	breq	.+4      	; 0xa32 <USART0_init+0xe>
     a2e:	23 e0       	ldi	r18, 0x03	; 3
     a30:	01 c0       	rjmp	.+2      	; 0xa34 <USART0_init+0x10>
     a32:	22 e0       	ldi	r18, 0x02	; 2
     a34:	92 2b       	or	r25, r18
     a36:	90 93 e2 05 	sts	0x05E2, r25	; 0x8005e2 <__TEXT_REGION_LENGTH__+0x7f05e2>
     a3a:	88 23       	and	r24, r24
     a3c:	19 f0       	breq	.+6      	; 0xa44 <USART0_init+0x20>
     a3e:	23 e8       	ldi	r18, 0x83	; 131
     a40:	36 e0       	ldi	r19, 0x06	; 6
     a42:	02 c0       	rjmp	.+4      	; 0xa48 <USART0_init+0x24>
     a44:	28 e8       	ldi	r18, 0x88	; 136
     a46:	33 e1       	ldi	r19, 0x13	; 19
     a48:	20 93 08 08 	sts	0x0808, r18	; 0x800808 <__TEXT_REGION_LENGTH__+0x7f0808>
     a4c:	30 93 09 08 	sts	0x0809, r19	; 0x800809 <__TEXT_REGION_LENGTH__+0x7f0809>
     a50:	91 e0       	ldi	r25, 0x01	; 1
     a52:	81 11       	cpse	r24, r1
     a54:	01 c0       	rjmp	.+2      	; 0xa58 <USART0_init+0x34>
     a56:	90 e0       	ldi	r25, 0x00	; 0
     a58:	e0 e0       	ldi	r30, 0x00	; 0
     a5a:	f8 e0       	ldi	r31, 0x08	; 8
     a5c:	95 83       	std	Z+5, r25	; 0x05
     a5e:	82 ec       	ldi	r24, 0xC2	; 194
     a60:	86 83       	std	Z+6, r24	; 0x06
     a62:	83 e0       	ldi	r24, 0x03	; 3
     a64:	87 83       	std	Z+7, r24	; 0x07
     a66:	08 95       	ret

00000a68 <USART0_readChar>:
     a68:	ff 92       	push	r15
     a6a:	0f 93       	push	r16
     a6c:	1f 93       	push	r17
     a6e:	cf 93       	push	r28
     a70:	df 93       	push	r29
     a72:	80 e8       	ldi	r24, 0x80	; 128
     a74:	80 93 04 08 	sts	0x0804, r24	; 0x800804 <__TEXT_REGION_LENGTH__+0x7f0804>
     a78:	68 94       	set
     a7a:	ff 24       	eor	r15, r15
     a7c:	f6 f8       	bld	r15, 6
     a7e:	0d e0       	ldi	r16, 0x0D	; 13
     a80:	13 e0       	ldi	r17, 0x03	; 3
     a82:	d0 e0       	ldi	r29, 0x00	; 0
     a84:	c0 e0       	ldi	r28, 0x00	; 0
     a86:	b0 e0       	ldi	r27, 0x00	; 0
     a88:	f0 e0       	ldi	r31, 0x00	; 0
     a8a:	e0 e0       	ldi	r30, 0x00	; 0
     a8c:	1b c0       	rjmp	.+54     	; 0xac4 <USART0_readChar+0x5c>
     a8e:	2f 2d       	mov	r18, r15
     a90:	30 2f       	mov	r19, r16
     a92:	41 2f       	mov	r20, r17
     a94:	5d 2f       	mov	r21, r29
     a96:	6c 2f       	mov	r22, r28
     a98:	7b 2f       	mov	r23, r27
     a9a:	8f 2f       	mov	r24, r31
     a9c:	9e 2f       	mov	r25, r30
     a9e:	af ef       	ldi	r26, 0xFF	; 255
     aa0:	0e 94 f5 05 	call	0xbea	; 0xbea <__adddi3_s8>
     aa4:	f2 2e       	mov	r15, r18
     aa6:	03 2f       	mov	r16, r19
     aa8:	14 2f       	mov	r17, r20
     aaa:	d5 2f       	mov	r29, r21
     aac:	c6 2f       	mov	r28, r22
     aae:	b7 2f       	mov	r27, r23
     ab0:	f8 2f       	mov	r31, r24
     ab2:	e9 2f       	mov	r30, r25
     ab4:	a0 e0       	ldi	r26, 0x00	; 0
     ab6:	0e 94 01 06 	call	0xc02	; 0xc02 <__cmpdi2_s8>
     aba:	21 f4       	brne	.+8      	; 0xac4 <USART0_readChar+0x5c>
     abc:	81 e0       	ldi	r24, 0x01	; 1
     abe:	80 93 9e 64 	sts	0x649E, r24	; 0x80649e <RS485+0x1>
     ac2:	04 c0       	rjmp	.+8      	; 0xacc <USART0_readChar+0x64>
     ac4:	80 91 04 08 	lds	r24, 0x0804	; 0x800804 <__TEXT_REGION_LENGTH__+0x7f0804>
     ac8:	88 23       	and	r24, r24
     aca:	0c f7       	brge	.-62     	; 0xa8e <USART0_readChar+0x26>
     acc:	80 91 00 08 	lds	r24, 0x0800	; 0x800800 <__TEXT_REGION_LENGTH__+0x7f0800>
     ad0:	df 91       	pop	r29
     ad2:	cf 91       	pop	r28
     ad4:	1f 91       	pop	r17
     ad6:	0f 91       	pop	r16
     ad8:	ff 90       	pop	r15
     ada:	08 95       	ret

00000adc <USART0_sendChar>:
     adc:	90 91 04 08 	lds	r25, 0x0804	; 0x800804 <__TEXT_REGION_LENGTH__+0x7f0804>
     ae0:	95 ff       	sbrs	r25, 5
     ae2:	fc cf       	rjmp	.-8      	; 0xadc <USART0_sendChar>
     ae4:	80 93 02 08 	sts	0x0802, r24	; 0x800802 <__TEXT_REGION_LENGTH__+0x7f0802>
     ae8:	08 95       	ret

00000aea <USART0_sendString>:
     aea:	0f 93       	push	r16
     aec:	1f 93       	push	r17
     aee:	cf 93       	push	r28
     af0:	df 93       	push	r29
     af2:	8c 01       	movw	r16, r24
     af4:	c0 e0       	ldi	r28, 0x00	; 0
     af6:	d0 e0       	ldi	r29, 0x00	; 0
     af8:	07 c0       	rjmp	.+14     	; 0xb08 <USART0_sendString+0x1e>
     afa:	f8 01       	movw	r30, r16
     afc:	ec 0f       	add	r30, r28
     afe:	fd 1f       	adc	r31, r29
     b00:	80 81       	ld	r24, Z
     b02:	0e 94 6e 05 	call	0xadc	; 0xadc <USART0_sendChar>
     b06:	21 96       	adiw	r28, 0x01	; 1
     b08:	f8 01       	movw	r30, r16
     b0a:	01 90       	ld	r0, Z+
     b0c:	00 20       	and	r0, r0
     b0e:	e9 f7       	brne	.-6      	; 0xb0a <USART0_sendString+0x20>
     b10:	31 97       	sbiw	r30, 0x01	; 1
     b12:	e0 1b       	sub	r30, r16
     b14:	f1 0b       	sbc	r31, r17
     b16:	ce 17       	cp	r28, r30
     b18:	df 07       	cpc	r29, r31
     b1a:	78 f3       	brcs	.-34     	; 0xafa <USART0_sendString+0x10>
     b1c:	df 91       	pop	r29
     b1e:	cf 91       	pop	r28
     b20:	1f 91       	pop	r17
     b22:	0f 91       	pop	r16
     b24:	08 95       	ret

00000b26 <USART1_init>:
     b26:	e0 e2       	ldi	r30, 0x20	; 32
     b28:	f8 e0       	ldi	r31, 0x08	; 8
     b2a:	83 e8       	ldi	r24, 0x83	; 131
     b2c:	96 e0       	ldi	r25, 0x06	; 6
     b2e:	80 87       	std	Z+8, r24	; 0x08
     b30:	91 87       	std	Z+9, r25	; 0x09
     b32:	82 ec       	ldi	r24, 0xC2	; 194
     b34:	86 83       	std	Z+6, r24	; 0x06
     b36:	83 e0       	ldi	r24, 0x03	; 3
     b38:	87 83       	std	Z+7, r24	; 0x07
     b3a:	08 95       	ret

00000b3c <USART1_sendChar>:
     b3c:	90 91 24 08 	lds	r25, 0x0824	; 0x800824 <__TEXT_REGION_LENGTH__+0x7f0824>
     b40:	95 ff       	sbrs	r25, 5
     b42:	fc cf       	rjmp	.-8      	; 0xb3c <USART1_sendChar>
     b44:	80 93 22 08 	sts	0x0822, r24	; 0x800822 <__TEXT_REGION_LENGTH__+0x7f0822>
     b48:	08 95       	ret

00000b4a <USART1_sendString>:
     b4a:	0f 93       	push	r16
     b4c:	1f 93       	push	r17
     b4e:	cf 93       	push	r28
     b50:	df 93       	push	r29
     b52:	8c 01       	movw	r16, r24
     b54:	c0 e0       	ldi	r28, 0x00	; 0
     b56:	d0 e0       	ldi	r29, 0x00	; 0
     b58:	07 c0       	rjmp	.+14     	; 0xb68 <USART1_sendString+0x1e>
     b5a:	f8 01       	movw	r30, r16
     b5c:	ec 0f       	add	r30, r28
     b5e:	fd 1f       	adc	r31, r29
     b60:	80 81       	ld	r24, Z
     b62:	0e 94 9e 05 	call	0xb3c	; 0xb3c <USART1_sendChar>
     b66:	21 96       	adiw	r28, 0x01	; 1
     b68:	f8 01       	movw	r30, r16
     b6a:	01 90       	ld	r0, Z+
     b6c:	00 20       	and	r0, r0
     b6e:	e9 f7       	brne	.-6      	; 0xb6a <USART1_sendString+0x20>
     b70:	31 97       	sbiw	r30, 0x01	; 1
     b72:	e0 1b       	sub	r30, r16
     b74:	f1 0b       	sbc	r31, r17
     b76:	ce 17       	cp	r28, r30
     b78:	df 07       	cpc	r29, r31
     b7a:	78 f3       	brcs	.-34     	; 0xb5a <USART1_sendString+0x10>
     b7c:	df 91       	pop	r29
     b7e:	cf 91       	pop	r28
     b80:	1f 91       	pop	r17
     b82:	0f 91       	pop	r16
     b84:	08 95       	ret

00000b86 <USART_printf>:
 * 
 * @param usart_number The USART number (0 or 1).
 * @param format The format string.
 * @param ... The arguments to be formatted into the string.
 */
void USART_printf(uint8_t usart_number, const char *format, ...) {
     b86:	1f 93       	push	r17
     b88:	cf 93       	push	r28
     b8a:	df 93       	push	r29
     b8c:	cd b7       	in	r28, 0x3d	; 61
     b8e:	de b7       	in	r29, 0x3e	; 62
     b90:	c0 58       	subi	r28, 0x80	; 128
     b92:	d1 09       	sbc	r29, r1
     b94:	cd bf       	out	0x3d, r28	; 61
     b96:	de bf       	out	0x3e, r29	; 62
     b98:	ca 57       	subi	r28, 0x7A	; 122
     b9a:	df 4f       	sbci	r29, 0xFF	; 255
     b9c:	18 81       	ld	r17, Y
     b9e:	c6 58       	subi	r28, 0x86	; 134
     ba0:	d0 40       	sbci	r29, 0x00	; 0
	char buffer[128]; // Temporary buffer for formatted message
	va_list args;
	va_start(args, format);
	vsnprintf(buffer, sizeof(buffer), format, args); // Format the message into the buffer
     ba2:	9e 01       	movw	r18, r28
     ba4:	27 57       	subi	r18, 0x77	; 119
     ba6:	3f 4f       	sbci	r19, 0xFF	; 255
     ba8:	c9 57       	subi	r28, 0x79	; 121
     baa:	df 4f       	sbci	r29, 0xFF	; 255
     bac:	48 81       	ld	r20, Y
     bae:	59 81       	ldd	r21, Y+1	; 0x01
     bb0:	c7 58       	subi	r28, 0x87	; 135
     bb2:	d0 40       	sbci	r29, 0x00	; 0
     bb4:	60 e8       	ldi	r22, 0x80	; 128
     bb6:	70 e0       	ldi	r23, 0x00	; 0
     bb8:	ce 01       	movw	r24, r28
     bba:	01 96       	adiw	r24, 0x01	; 1
     bbc:	0e 94 66 06 	call	0xccc	; 0xccc <vsnprintf>
	va_end(args);

	// Select the USART channel for sending the formatted string
	if (usart_number == 0) {
     bc0:	11 11       	cpse	r17, r1
     bc2:	05 c0       	rjmp	.+10     	; 0xbce <USART_printf+0x48>
		USART0_sendString(buffer); // Use USART0 for sending
     bc4:	ce 01       	movw	r24, r28
     bc6:	01 96       	adiw	r24, 0x01	; 1
     bc8:	0e 94 75 05 	call	0xaea	; 0xaea <USART0_sendString>
     bcc:	06 c0       	rjmp	.+12     	; 0xbda <USART_printf+0x54>
	} else if (usart_number == 1) {
     bce:	11 30       	cpi	r17, 0x01	; 1
     bd0:	21 f4       	brne	.+8      	; 0xbda <USART_printf+0x54>
		USART1_sendString(buffer); // Use USART1 for sending
     bd2:	ce 01       	movw	r24, r28
     bd4:	01 96       	adiw	r24, 0x01	; 1
     bd6:	0e 94 a5 05 	call	0xb4a	; 0xb4a <USART1_sendString>
	} else {
		// Handle invalid USART number – add error management if needed
	}
}
     bda:	c0 58       	subi	r28, 0x80	; 128
     bdc:	df 4f       	sbci	r29, 0xFF	; 255
     bde:	cd bf       	out	0x3d, r28	; 61
     be0:	de bf       	out	0x3e, r29	; 62
     be2:	df 91       	pop	r29
     be4:	cf 91       	pop	r28
     be6:	1f 91       	pop	r17
     be8:	08 95       	ret

00000bea <__adddi3_s8>:
     bea:	00 24       	eor	r0, r0
     bec:	a7 fd       	sbrc	r26, 7
     bee:	00 94       	com	r0
     bf0:	2a 0f       	add	r18, r26
     bf2:	30 1d       	adc	r19, r0
     bf4:	40 1d       	adc	r20, r0
     bf6:	50 1d       	adc	r21, r0
     bf8:	60 1d       	adc	r22, r0
     bfa:	70 1d       	adc	r23, r0
     bfc:	80 1d       	adc	r24, r0
     bfe:	90 1d       	adc	r25, r0
     c00:	08 95       	ret

00000c02 <__cmpdi2_s8>:
     c02:	00 24       	eor	r0, r0
     c04:	a7 fd       	sbrc	r26, 7
     c06:	00 94       	com	r0
     c08:	2a 17       	cp	r18, r26
     c0a:	30 05       	cpc	r19, r0
     c0c:	40 05       	cpc	r20, r0
     c0e:	50 05       	cpc	r21, r0
     c10:	60 05       	cpc	r22, r0
     c12:	70 05       	cpc	r23, r0
     c14:	80 05       	cpc	r24, r0
     c16:	90 05       	cpc	r25, r0
     c18:	08 95       	ret

00000c1a <strncpy>:
     c1a:	fb 01       	movw	r30, r22
     c1c:	dc 01       	movw	r26, r24
     c1e:	41 50       	subi	r20, 0x01	; 1
     c20:	50 40       	sbci	r21, 0x00	; 0
     c22:	48 f0       	brcs	.+18     	; 0xc36 <strncpy+0x1c>
     c24:	01 90       	ld	r0, Z+
     c26:	0d 92       	st	X+, r0
     c28:	00 20       	and	r0, r0
     c2a:	c9 f7       	brne	.-14     	; 0xc1e <strncpy+0x4>
     c2c:	01 c0       	rjmp	.+2      	; 0xc30 <strncpy+0x16>
     c2e:	1d 92       	st	X+, r1
     c30:	41 50       	subi	r20, 0x01	; 1
     c32:	50 40       	sbci	r21, 0x00	; 0
     c34:	e0 f7       	brcc	.-8      	; 0xc2e <strncpy+0x14>
     c36:	08 95       	ret

00000c38 <strstr>:
     c38:	fb 01       	movw	r30, r22
     c3a:	51 91       	ld	r21, Z+
     c3c:	55 23       	and	r21, r21
     c3e:	a9 f0       	breq	.+42     	; 0xc6a <strstr+0x32>
     c40:	bf 01       	movw	r22, r30
     c42:	dc 01       	movw	r26, r24
     c44:	4d 91       	ld	r20, X+
     c46:	45 17       	cp	r20, r21
     c48:	41 11       	cpse	r20, r1
     c4a:	e1 f7       	brne	.-8      	; 0xc44 <strstr+0xc>
     c4c:	59 f4       	brne	.+22     	; 0xc64 <strstr+0x2c>
     c4e:	cd 01       	movw	r24, r26
     c50:	01 90       	ld	r0, Z+
     c52:	00 20       	and	r0, r0
     c54:	49 f0       	breq	.+18     	; 0xc68 <strstr+0x30>
     c56:	4d 91       	ld	r20, X+
     c58:	40 15       	cp	r20, r0
     c5a:	41 11       	cpse	r20, r1
     c5c:	c9 f3       	breq	.-14     	; 0xc50 <strstr+0x18>
     c5e:	fb 01       	movw	r30, r22
     c60:	41 11       	cpse	r20, r1
     c62:	ef cf       	rjmp	.-34     	; 0xc42 <strstr+0xa>
     c64:	81 e0       	ldi	r24, 0x01	; 1
     c66:	90 e0       	ldi	r25, 0x00	; 0
     c68:	01 97       	sbiw	r24, 0x01	; 1
     c6a:	08 95       	ret

00000c6c <snprintf>:
     c6c:	ae e0       	ldi	r26, 0x0E	; 14
     c6e:	b0 e0       	ldi	r27, 0x00	; 0
     c70:	ec e3       	ldi	r30, 0x3C	; 60
     c72:	f6 e0       	ldi	r31, 0x06	; 6
     c74:	0c 94 37 09 	jmp	0x126e	; 0x126e <__prologue_saves__+0x1c>
     c78:	0d 89       	ldd	r16, Y+21	; 0x15
     c7a:	1e 89       	ldd	r17, Y+22	; 0x16
     c7c:	8f 89       	ldd	r24, Y+23	; 0x17
     c7e:	98 8d       	ldd	r25, Y+24	; 0x18
     c80:	26 e0       	ldi	r18, 0x06	; 6
     c82:	2c 83       	std	Y+4, r18	; 0x04
     c84:	09 83       	std	Y+1, r16	; 0x01
     c86:	1a 83       	std	Y+2, r17	; 0x02
     c88:	97 ff       	sbrs	r25, 7
     c8a:	02 c0       	rjmp	.+4      	; 0xc90 <snprintf+0x24>
     c8c:	80 e0       	ldi	r24, 0x00	; 0
     c8e:	90 e8       	ldi	r25, 0x80	; 128
     c90:	01 97       	sbiw	r24, 0x01	; 1
     c92:	8d 83       	std	Y+5, r24	; 0x05
     c94:	9e 83       	std	Y+6, r25	; 0x06
     c96:	ae 01       	movw	r20, r28
     c98:	45 5e       	subi	r20, 0xE5	; 229
     c9a:	5f 4f       	sbci	r21, 0xFF	; 255
     c9c:	69 8d       	ldd	r22, Y+25	; 0x19
     c9e:	7a 8d       	ldd	r23, Y+26	; 0x1a
     ca0:	ce 01       	movw	r24, r28
     ca2:	01 96       	adiw	r24, 0x01	; 1
     ca4:	0e 94 92 06 	call	0xd24	; 0xd24 <vfprintf>
     ca8:	4d 81       	ldd	r20, Y+5	; 0x05
     caa:	5e 81       	ldd	r21, Y+6	; 0x06
     cac:	57 fd       	sbrc	r21, 7
     cae:	0a c0       	rjmp	.+20     	; 0xcc4 <snprintf+0x58>
     cb0:	2f 81       	ldd	r18, Y+7	; 0x07
     cb2:	38 85       	ldd	r19, Y+8	; 0x08
     cb4:	42 17       	cp	r20, r18
     cb6:	53 07       	cpc	r21, r19
     cb8:	0c f4       	brge	.+2      	; 0xcbc <snprintf+0x50>
     cba:	9a 01       	movw	r18, r20
     cbc:	f8 01       	movw	r30, r16
     cbe:	e2 0f       	add	r30, r18
     cc0:	f3 1f       	adc	r31, r19
     cc2:	10 82       	st	Z, r1
     cc4:	2e 96       	adiw	r28, 0x0e	; 14
     cc6:	e4 e0       	ldi	r30, 0x04	; 4
     cc8:	0c 94 50 09 	jmp	0x12a0	; 0x12a0 <__epilogue_restores__+0x1c>

00000ccc <vsnprintf>:
     ccc:	ae e0       	ldi	r26, 0x0E	; 14
     cce:	b0 e0       	ldi	r27, 0x00	; 0
     cd0:	ec e6       	ldi	r30, 0x6C	; 108
     cd2:	f6 e0       	ldi	r31, 0x06	; 6
     cd4:	0c 94 37 09 	jmp	0x126e	; 0x126e <__prologue_saves__+0x1c>
     cd8:	8c 01       	movw	r16, r24
     cda:	fa 01       	movw	r30, r20
     cdc:	86 e0       	ldi	r24, 0x06	; 6
     cde:	8c 83       	std	Y+4, r24	; 0x04
     ce0:	09 83       	std	Y+1, r16	; 0x01
     ce2:	1a 83       	std	Y+2, r17	; 0x02
     ce4:	77 ff       	sbrs	r23, 7
     ce6:	02 c0       	rjmp	.+4      	; 0xcec <vsnprintf+0x20>
     ce8:	60 e0       	ldi	r22, 0x00	; 0
     cea:	70 e8       	ldi	r23, 0x80	; 128
     cec:	cb 01       	movw	r24, r22
     cee:	01 97       	sbiw	r24, 0x01	; 1
     cf0:	8d 83       	std	Y+5, r24	; 0x05
     cf2:	9e 83       	std	Y+6, r25	; 0x06
     cf4:	a9 01       	movw	r20, r18
     cf6:	bf 01       	movw	r22, r30
     cf8:	ce 01       	movw	r24, r28
     cfa:	01 96       	adiw	r24, 0x01	; 1
     cfc:	0e 94 92 06 	call	0xd24	; 0xd24 <vfprintf>
     d00:	4d 81       	ldd	r20, Y+5	; 0x05
     d02:	5e 81       	ldd	r21, Y+6	; 0x06
     d04:	57 fd       	sbrc	r21, 7
     d06:	0a c0       	rjmp	.+20     	; 0xd1c <vsnprintf+0x50>
     d08:	2f 81       	ldd	r18, Y+7	; 0x07
     d0a:	38 85       	ldd	r19, Y+8	; 0x08
     d0c:	42 17       	cp	r20, r18
     d0e:	53 07       	cpc	r21, r19
     d10:	0c f4       	brge	.+2      	; 0xd14 <vsnprintf+0x48>
     d12:	9a 01       	movw	r18, r20
     d14:	f8 01       	movw	r30, r16
     d16:	e2 0f       	add	r30, r18
     d18:	f3 1f       	adc	r31, r19
     d1a:	10 82       	st	Z, r1
     d1c:	2e 96       	adiw	r28, 0x0e	; 14
     d1e:	e4 e0       	ldi	r30, 0x04	; 4
     d20:	0c 94 50 09 	jmp	0x12a0	; 0x12a0 <__epilogue_restores__+0x1c>

00000d24 <vfprintf>:
     d24:	ab e0       	ldi	r26, 0x0B	; 11
     d26:	b0 e0       	ldi	r27, 0x00	; 0
     d28:	e8 e9       	ldi	r30, 0x98	; 152
     d2a:	f6 e0       	ldi	r31, 0x06	; 6
     d2c:	0c 94 29 09 	jmp	0x1252	; 0x1252 <__prologue_saves__>
     d30:	6c 01       	movw	r12, r24
     d32:	7b 01       	movw	r14, r22
     d34:	8a 01       	movw	r16, r20
     d36:	fc 01       	movw	r30, r24
     d38:	16 82       	std	Z+6, r1	; 0x06
     d3a:	17 82       	std	Z+7, r1	; 0x07
     d3c:	83 81       	ldd	r24, Z+3	; 0x03
     d3e:	81 ff       	sbrs	r24, 1
     d40:	cc c1       	rjmp	.+920    	; 0x10da <vfprintf+0x3b6>
     d42:	ce 01       	movw	r24, r28
     d44:	01 96       	adiw	r24, 0x01	; 1
     d46:	3c 01       	movw	r6, r24
     d48:	f6 01       	movw	r30, r12
     d4a:	93 81       	ldd	r25, Z+3	; 0x03
     d4c:	f7 01       	movw	r30, r14
     d4e:	93 fd       	sbrc	r25, 3
     d50:	85 91       	lpm	r24, Z+
     d52:	93 ff       	sbrs	r25, 3
     d54:	81 91       	ld	r24, Z+
     d56:	7f 01       	movw	r14, r30
     d58:	88 23       	and	r24, r24
     d5a:	09 f4       	brne	.+2      	; 0xd5e <vfprintf+0x3a>
     d5c:	ba c1       	rjmp	.+884    	; 0x10d2 <vfprintf+0x3ae>
     d5e:	85 32       	cpi	r24, 0x25	; 37
     d60:	39 f4       	brne	.+14     	; 0xd70 <vfprintf+0x4c>
     d62:	93 fd       	sbrc	r25, 3
     d64:	85 91       	lpm	r24, Z+
     d66:	93 ff       	sbrs	r25, 3
     d68:	81 91       	ld	r24, Z+
     d6a:	7f 01       	movw	r14, r30
     d6c:	85 32       	cpi	r24, 0x25	; 37
     d6e:	29 f4       	brne	.+10     	; 0xd7a <vfprintf+0x56>
     d70:	b6 01       	movw	r22, r12
     d72:	90 e0       	ldi	r25, 0x00	; 0
     d74:	0e 94 89 08 	call	0x1112	; 0x1112 <fputc>
     d78:	e7 cf       	rjmp	.-50     	; 0xd48 <vfprintf+0x24>
     d7a:	91 2c       	mov	r9, r1
     d7c:	21 2c       	mov	r2, r1
     d7e:	31 2c       	mov	r3, r1
     d80:	ff e1       	ldi	r31, 0x1F	; 31
     d82:	f3 15       	cp	r31, r3
     d84:	d8 f0       	brcs	.+54     	; 0xdbc <vfprintf+0x98>
     d86:	8b 32       	cpi	r24, 0x2B	; 43
     d88:	79 f0       	breq	.+30     	; 0xda8 <vfprintf+0x84>
     d8a:	38 f4       	brcc	.+14     	; 0xd9a <vfprintf+0x76>
     d8c:	80 32       	cpi	r24, 0x20	; 32
     d8e:	79 f0       	breq	.+30     	; 0xdae <vfprintf+0x8a>
     d90:	83 32       	cpi	r24, 0x23	; 35
     d92:	a1 f4       	brne	.+40     	; 0xdbc <vfprintf+0x98>
     d94:	23 2d       	mov	r18, r3
     d96:	20 61       	ori	r18, 0x10	; 16
     d98:	1d c0       	rjmp	.+58     	; 0xdd4 <vfprintf+0xb0>
     d9a:	8d 32       	cpi	r24, 0x2D	; 45
     d9c:	61 f0       	breq	.+24     	; 0xdb6 <vfprintf+0x92>
     d9e:	80 33       	cpi	r24, 0x30	; 48
     da0:	69 f4       	brne	.+26     	; 0xdbc <vfprintf+0x98>
     da2:	23 2d       	mov	r18, r3
     da4:	21 60       	ori	r18, 0x01	; 1
     da6:	16 c0       	rjmp	.+44     	; 0xdd4 <vfprintf+0xb0>
     da8:	83 2d       	mov	r24, r3
     daa:	82 60       	ori	r24, 0x02	; 2
     dac:	38 2e       	mov	r3, r24
     dae:	e3 2d       	mov	r30, r3
     db0:	e4 60       	ori	r30, 0x04	; 4
     db2:	3e 2e       	mov	r3, r30
     db4:	2a c0       	rjmp	.+84     	; 0xe0a <vfprintf+0xe6>
     db6:	f3 2d       	mov	r31, r3
     db8:	f8 60       	ori	r31, 0x08	; 8
     dba:	1d c0       	rjmp	.+58     	; 0xdf6 <vfprintf+0xd2>
     dbc:	37 fc       	sbrc	r3, 7
     dbe:	2d c0       	rjmp	.+90     	; 0xe1a <vfprintf+0xf6>
     dc0:	20 ed       	ldi	r18, 0xD0	; 208
     dc2:	28 0f       	add	r18, r24
     dc4:	2a 30       	cpi	r18, 0x0A	; 10
     dc6:	40 f0       	brcs	.+16     	; 0xdd8 <vfprintf+0xb4>
     dc8:	8e 32       	cpi	r24, 0x2E	; 46
     dca:	b9 f4       	brne	.+46     	; 0xdfa <vfprintf+0xd6>
     dcc:	36 fc       	sbrc	r3, 6
     dce:	81 c1       	rjmp	.+770    	; 0x10d2 <vfprintf+0x3ae>
     dd0:	23 2d       	mov	r18, r3
     dd2:	20 64       	ori	r18, 0x40	; 64
     dd4:	32 2e       	mov	r3, r18
     dd6:	19 c0       	rjmp	.+50     	; 0xe0a <vfprintf+0xe6>
     dd8:	36 fe       	sbrs	r3, 6
     dda:	06 c0       	rjmp	.+12     	; 0xde8 <vfprintf+0xc4>
     ddc:	8a e0       	ldi	r24, 0x0A	; 10
     dde:	98 9e       	mul	r9, r24
     de0:	20 0d       	add	r18, r0
     de2:	11 24       	eor	r1, r1
     de4:	92 2e       	mov	r9, r18
     de6:	11 c0       	rjmp	.+34     	; 0xe0a <vfprintf+0xe6>
     de8:	ea e0       	ldi	r30, 0x0A	; 10
     dea:	2e 9e       	mul	r2, r30
     dec:	20 0d       	add	r18, r0
     dee:	11 24       	eor	r1, r1
     df0:	22 2e       	mov	r2, r18
     df2:	f3 2d       	mov	r31, r3
     df4:	f0 62       	ori	r31, 0x20	; 32
     df6:	3f 2e       	mov	r3, r31
     df8:	08 c0       	rjmp	.+16     	; 0xe0a <vfprintf+0xe6>
     dfa:	8c 36       	cpi	r24, 0x6C	; 108
     dfc:	21 f4       	brne	.+8      	; 0xe06 <vfprintf+0xe2>
     dfe:	83 2d       	mov	r24, r3
     e00:	80 68       	ori	r24, 0x80	; 128
     e02:	38 2e       	mov	r3, r24
     e04:	02 c0       	rjmp	.+4      	; 0xe0a <vfprintf+0xe6>
     e06:	88 36       	cpi	r24, 0x68	; 104
     e08:	41 f4       	brne	.+16     	; 0xe1a <vfprintf+0xf6>
     e0a:	f7 01       	movw	r30, r14
     e0c:	93 fd       	sbrc	r25, 3
     e0e:	85 91       	lpm	r24, Z+
     e10:	93 ff       	sbrs	r25, 3
     e12:	81 91       	ld	r24, Z+
     e14:	7f 01       	movw	r14, r30
     e16:	81 11       	cpse	r24, r1
     e18:	b3 cf       	rjmp	.-154    	; 0xd80 <vfprintf+0x5c>
     e1a:	98 2f       	mov	r25, r24
     e1c:	9f 7d       	andi	r25, 0xDF	; 223
     e1e:	95 54       	subi	r25, 0x45	; 69
     e20:	93 30       	cpi	r25, 0x03	; 3
     e22:	28 f4       	brcc	.+10     	; 0xe2e <vfprintf+0x10a>
     e24:	0c 5f       	subi	r16, 0xFC	; 252
     e26:	1f 4f       	sbci	r17, 0xFF	; 255
     e28:	9f e3       	ldi	r25, 0x3F	; 63
     e2a:	99 83       	std	Y+1, r25	; 0x01
     e2c:	0d c0       	rjmp	.+26     	; 0xe48 <vfprintf+0x124>
     e2e:	83 36       	cpi	r24, 0x63	; 99
     e30:	31 f0       	breq	.+12     	; 0xe3e <vfprintf+0x11a>
     e32:	83 37       	cpi	r24, 0x73	; 115
     e34:	71 f0       	breq	.+28     	; 0xe52 <vfprintf+0x12e>
     e36:	83 35       	cpi	r24, 0x53	; 83
     e38:	09 f0       	breq	.+2      	; 0xe3c <vfprintf+0x118>
     e3a:	59 c0       	rjmp	.+178    	; 0xeee <vfprintf+0x1ca>
     e3c:	21 c0       	rjmp	.+66     	; 0xe80 <vfprintf+0x15c>
     e3e:	f8 01       	movw	r30, r16
     e40:	80 81       	ld	r24, Z
     e42:	89 83       	std	Y+1, r24	; 0x01
     e44:	0e 5f       	subi	r16, 0xFE	; 254
     e46:	1f 4f       	sbci	r17, 0xFF	; 255
     e48:	88 24       	eor	r8, r8
     e4a:	83 94       	inc	r8
     e4c:	91 2c       	mov	r9, r1
     e4e:	53 01       	movw	r10, r6
     e50:	13 c0       	rjmp	.+38     	; 0xe78 <vfprintf+0x154>
     e52:	28 01       	movw	r4, r16
     e54:	f2 e0       	ldi	r31, 0x02	; 2
     e56:	4f 0e       	add	r4, r31
     e58:	51 1c       	adc	r5, r1
     e5a:	f8 01       	movw	r30, r16
     e5c:	a0 80       	ld	r10, Z
     e5e:	b1 80       	ldd	r11, Z+1	; 0x01
     e60:	36 fe       	sbrs	r3, 6
     e62:	03 c0       	rjmp	.+6      	; 0xe6a <vfprintf+0x146>
     e64:	69 2d       	mov	r22, r9
     e66:	70 e0       	ldi	r23, 0x00	; 0
     e68:	02 c0       	rjmp	.+4      	; 0xe6e <vfprintf+0x14a>
     e6a:	6f ef       	ldi	r22, 0xFF	; 255
     e6c:	7f ef       	ldi	r23, 0xFF	; 255
     e6e:	c5 01       	movw	r24, r10
     e70:	0e 94 7e 08 	call	0x10fc	; 0x10fc <strnlen>
     e74:	4c 01       	movw	r8, r24
     e76:	82 01       	movw	r16, r4
     e78:	f3 2d       	mov	r31, r3
     e7a:	ff 77       	andi	r31, 0x7F	; 127
     e7c:	3f 2e       	mov	r3, r31
     e7e:	16 c0       	rjmp	.+44     	; 0xeac <vfprintf+0x188>
     e80:	28 01       	movw	r4, r16
     e82:	22 e0       	ldi	r18, 0x02	; 2
     e84:	42 0e       	add	r4, r18
     e86:	51 1c       	adc	r5, r1
     e88:	f8 01       	movw	r30, r16
     e8a:	a0 80       	ld	r10, Z
     e8c:	b1 80       	ldd	r11, Z+1	; 0x01
     e8e:	36 fe       	sbrs	r3, 6
     e90:	03 c0       	rjmp	.+6      	; 0xe98 <vfprintf+0x174>
     e92:	69 2d       	mov	r22, r9
     e94:	70 e0       	ldi	r23, 0x00	; 0
     e96:	02 c0       	rjmp	.+4      	; 0xe9c <vfprintf+0x178>
     e98:	6f ef       	ldi	r22, 0xFF	; 255
     e9a:	7f ef       	ldi	r23, 0xFF	; 255
     e9c:	c5 01       	movw	r24, r10
     e9e:	0e 94 73 08 	call	0x10e6	; 0x10e6 <strnlen_P>
     ea2:	4c 01       	movw	r8, r24
     ea4:	f3 2d       	mov	r31, r3
     ea6:	f0 68       	ori	r31, 0x80	; 128
     ea8:	3f 2e       	mov	r3, r31
     eaa:	82 01       	movw	r16, r4
     eac:	33 fc       	sbrc	r3, 3
     eae:	1b c0       	rjmp	.+54     	; 0xee6 <vfprintf+0x1c2>
     eb0:	82 2d       	mov	r24, r2
     eb2:	90 e0       	ldi	r25, 0x00	; 0
     eb4:	88 16       	cp	r8, r24
     eb6:	99 06       	cpc	r9, r25
     eb8:	b0 f4       	brcc	.+44     	; 0xee6 <vfprintf+0x1c2>
     eba:	b6 01       	movw	r22, r12
     ebc:	80 e2       	ldi	r24, 0x20	; 32
     ebe:	90 e0       	ldi	r25, 0x00	; 0
     ec0:	0e 94 89 08 	call	0x1112	; 0x1112 <fputc>
     ec4:	2a 94       	dec	r2
     ec6:	f4 cf       	rjmp	.-24     	; 0xeb0 <vfprintf+0x18c>
     ec8:	f5 01       	movw	r30, r10
     eca:	37 fc       	sbrc	r3, 7
     ecc:	85 91       	lpm	r24, Z+
     ece:	37 fe       	sbrs	r3, 7
     ed0:	81 91       	ld	r24, Z+
     ed2:	5f 01       	movw	r10, r30
     ed4:	b6 01       	movw	r22, r12
     ed6:	90 e0       	ldi	r25, 0x00	; 0
     ed8:	0e 94 89 08 	call	0x1112	; 0x1112 <fputc>
     edc:	21 10       	cpse	r2, r1
     ede:	2a 94       	dec	r2
     ee0:	21 e0       	ldi	r18, 0x01	; 1
     ee2:	82 1a       	sub	r8, r18
     ee4:	91 08       	sbc	r9, r1
     ee6:	81 14       	cp	r8, r1
     ee8:	91 04       	cpc	r9, r1
     eea:	71 f7       	brne	.-36     	; 0xec8 <vfprintf+0x1a4>
     eec:	e8 c0       	rjmp	.+464    	; 0x10be <vfprintf+0x39a>
     eee:	84 36       	cpi	r24, 0x64	; 100
     ef0:	11 f0       	breq	.+4      	; 0xef6 <vfprintf+0x1d2>
     ef2:	89 36       	cpi	r24, 0x69	; 105
     ef4:	41 f5       	brne	.+80     	; 0xf46 <vfprintf+0x222>
     ef6:	f8 01       	movw	r30, r16
     ef8:	37 fe       	sbrs	r3, 7
     efa:	07 c0       	rjmp	.+14     	; 0xf0a <vfprintf+0x1e6>
     efc:	60 81       	ld	r22, Z
     efe:	71 81       	ldd	r23, Z+1	; 0x01
     f00:	82 81       	ldd	r24, Z+2	; 0x02
     f02:	93 81       	ldd	r25, Z+3	; 0x03
     f04:	0c 5f       	subi	r16, 0xFC	; 252
     f06:	1f 4f       	sbci	r17, 0xFF	; 255
     f08:	08 c0       	rjmp	.+16     	; 0xf1a <vfprintf+0x1f6>
     f0a:	60 81       	ld	r22, Z
     f0c:	71 81       	ldd	r23, Z+1	; 0x01
     f0e:	07 2e       	mov	r0, r23
     f10:	00 0c       	add	r0, r0
     f12:	88 0b       	sbc	r24, r24
     f14:	99 0b       	sbc	r25, r25
     f16:	0e 5f       	subi	r16, 0xFE	; 254
     f18:	1f 4f       	sbci	r17, 0xFF	; 255
     f1a:	f3 2d       	mov	r31, r3
     f1c:	ff 76       	andi	r31, 0x6F	; 111
     f1e:	3f 2e       	mov	r3, r31
     f20:	97 ff       	sbrs	r25, 7
     f22:	09 c0       	rjmp	.+18     	; 0xf36 <vfprintf+0x212>
     f24:	90 95       	com	r25
     f26:	80 95       	com	r24
     f28:	70 95       	com	r23
     f2a:	61 95       	neg	r22
     f2c:	7f 4f       	sbci	r23, 0xFF	; 255
     f2e:	8f 4f       	sbci	r24, 0xFF	; 255
     f30:	9f 4f       	sbci	r25, 0xFF	; 255
     f32:	f0 68       	ori	r31, 0x80	; 128
     f34:	3f 2e       	mov	r3, r31
     f36:	2a e0       	ldi	r18, 0x0A	; 10
     f38:	30 e0       	ldi	r19, 0x00	; 0
     f3a:	a3 01       	movw	r20, r6
     f3c:	0e 94 c5 08 	call	0x118a	; 0x118a <__ultoa_invert>
     f40:	88 2e       	mov	r8, r24
     f42:	86 18       	sub	r8, r6
     f44:	45 c0       	rjmp	.+138    	; 0xfd0 <vfprintf+0x2ac>
     f46:	85 37       	cpi	r24, 0x75	; 117
     f48:	31 f4       	brne	.+12     	; 0xf56 <vfprintf+0x232>
     f4a:	23 2d       	mov	r18, r3
     f4c:	2f 7e       	andi	r18, 0xEF	; 239
     f4e:	b2 2e       	mov	r11, r18
     f50:	2a e0       	ldi	r18, 0x0A	; 10
     f52:	30 e0       	ldi	r19, 0x00	; 0
     f54:	25 c0       	rjmp	.+74     	; 0xfa0 <vfprintf+0x27c>
     f56:	93 2d       	mov	r25, r3
     f58:	99 7f       	andi	r25, 0xF9	; 249
     f5a:	b9 2e       	mov	r11, r25
     f5c:	8f 36       	cpi	r24, 0x6F	; 111
     f5e:	c1 f0       	breq	.+48     	; 0xf90 <vfprintf+0x26c>
     f60:	18 f4       	brcc	.+6      	; 0xf68 <vfprintf+0x244>
     f62:	88 35       	cpi	r24, 0x58	; 88
     f64:	79 f0       	breq	.+30     	; 0xf84 <vfprintf+0x260>
     f66:	b5 c0       	rjmp	.+362    	; 0x10d2 <vfprintf+0x3ae>
     f68:	80 37       	cpi	r24, 0x70	; 112
     f6a:	19 f0       	breq	.+6      	; 0xf72 <vfprintf+0x24e>
     f6c:	88 37       	cpi	r24, 0x78	; 120
     f6e:	21 f0       	breq	.+8      	; 0xf78 <vfprintf+0x254>
     f70:	b0 c0       	rjmp	.+352    	; 0x10d2 <vfprintf+0x3ae>
     f72:	e9 2f       	mov	r30, r25
     f74:	e0 61       	ori	r30, 0x10	; 16
     f76:	be 2e       	mov	r11, r30
     f78:	b4 fe       	sbrs	r11, 4
     f7a:	0d c0       	rjmp	.+26     	; 0xf96 <vfprintf+0x272>
     f7c:	fb 2d       	mov	r31, r11
     f7e:	f4 60       	ori	r31, 0x04	; 4
     f80:	bf 2e       	mov	r11, r31
     f82:	09 c0       	rjmp	.+18     	; 0xf96 <vfprintf+0x272>
     f84:	34 fe       	sbrs	r3, 4
     f86:	0a c0       	rjmp	.+20     	; 0xf9c <vfprintf+0x278>
     f88:	29 2f       	mov	r18, r25
     f8a:	26 60       	ori	r18, 0x06	; 6
     f8c:	b2 2e       	mov	r11, r18
     f8e:	06 c0       	rjmp	.+12     	; 0xf9c <vfprintf+0x278>
     f90:	28 e0       	ldi	r18, 0x08	; 8
     f92:	30 e0       	ldi	r19, 0x00	; 0
     f94:	05 c0       	rjmp	.+10     	; 0xfa0 <vfprintf+0x27c>
     f96:	20 e1       	ldi	r18, 0x10	; 16
     f98:	30 e0       	ldi	r19, 0x00	; 0
     f9a:	02 c0       	rjmp	.+4      	; 0xfa0 <vfprintf+0x27c>
     f9c:	20 e1       	ldi	r18, 0x10	; 16
     f9e:	32 e0       	ldi	r19, 0x02	; 2
     fa0:	f8 01       	movw	r30, r16
     fa2:	b7 fe       	sbrs	r11, 7
     fa4:	07 c0       	rjmp	.+14     	; 0xfb4 <vfprintf+0x290>
     fa6:	60 81       	ld	r22, Z
     fa8:	71 81       	ldd	r23, Z+1	; 0x01
     faa:	82 81       	ldd	r24, Z+2	; 0x02
     fac:	93 81       	ldd	r25, Z+3	; 0x03
     fae:	0c 5f       	subi	r16, 0xFC	; 252
     fb0:	1f 4f       	sbci	r17, 0xFF	; 255
     fb2:	06 c0       	rjmp	.+12     	; 0xfc0 <vfprintf+0x29c>
     fb4:	60 81       	ld	r22, Z
     fb6:	71 81       	ldd	r23, Z+1	; 0x01
     fb8:	80 e0       	ldi	r24, 0x00	; 0
     fba:	90 e0       	ldi	r25, 0x00	; 0
     fbc:	0e 5f       	subi	r16, 0xFE	; 254
     fbe:	1f 4f       	sbci	r17, 0xFF	; 255
     fc0:	a3 01       	movw	r20, r6
     fc2:	0e 94 c5 08 	call	0x118a	; 0x118a <__ultoa_invert>
     fc6:	88 2e       	mov	r8, r24
     fc8:	86 18       	sub	r8, r6
     fca:	fb 2d       	mov	r31, r11
     fcc:	ff 77       	andi	r31, 0x7F	; 127
     fce:	3f 2e       	mov	r3, r31
     fd0:	36 fe       	sbrs	r3, 6
     fd2:	0d c0       	rjmp	.+26     	; 0xfee <vfprintf+0x2ca>
     fd4:	23 2d       	mov	r18, r3
     fd6:	2e 7f       	andi	r18, 0xFE	; 254
     fd8:	a2 2e       	mov	r10, r18
     fda:	89 14       	cp	r8, r9
     fdc:	58 f4       	brcc	.+22     	; 0xff4 <vfprintf+0x2d0>
     fde:	34 fe       	sbrs	r3, 4
     fe0:	0b c0       	rjmp	.+22     	; 0xff8 <vfprintf+0x2d4>
     fe2:	32 fc       	sbrc	r3, 2
     fe4:	09 c0       	rjmp	.+18     	; 0xff8 <vfprintf+0x2d4>
     fe6:	83 2d       	mov	r24, r3
     fe8:	8e 7e       	andi	r24, 0xEE	; 238
     fea:	a8 2e       	mov	r10, r24
     fec:	05 c0       	rjmp	.+10     	; 0xff8 <vfprintf+0x2d4>
     fee:	b8 2c       	mov	r11, r8
     ff0:	a3 2c       	mov	r10, r3
     ff2:	03 c0       	rjmp	.+6      	; 0xffa <vfprintf+0x2d6>
     ff4:	b8 2c       	mov	r11, r8
     ff6:	01 c0       	rjmp	.+2      	; 0xffa <vfprintf+0x2d6>
     ff8:	b9 2c       	mov	r11, r9
     ffa:	a4 fe       	sbrs	r10, 4
     ffc:	0f c0       	rjmp	.+30     	; 0x101c <vfprintf+0x2f8>
     ffe:	fe 01       	movw	r30, r28
    1000:	e8 0d       	add	r30, r8
    1002:	f1 1d       	adc	r31, r1
    1004:	80 81       	ld	r24, Z
    1006:	80 33       	cpi	r24, 0x30	; 48
    1008:	21 f4       	brne	.+8      	; 0x1012 <vfprintf+0x2ee>
    100a:	9a 2d       	mov	r25, r10
    100c:	99 7e       	andi	r25, 0xE9	; 233
    100e:	a9 2e       	mov	r10, r25
    1010:	09 c0       	rjmp	.+18     	; 0x1024 <vfprintf+0x300>
    1012:	a2 fe       	sbrs	r10, 2
    1014:	06 c0       	rjmp	.+12     	; 0x1022 <vfprintf+0x2fe>
    1016:	b3 94       	inc	r11
    1018:	b3 94       	inc	r11
    101a:	04 c0       	rjmp	.+8      	; 0x1024 <vfprintf+0x300>
    101c:	8a 2d       	mov	r24, r10
    101e:	86 78       	andi	r24, 0x86	; 134
    1020:	09 f0       	breq	.+2      	; 0x1024 <vfprintf+0x300>
    1022:	b3 94       	inc	r11
    1024:	a3 fc       	sbrc	r10, 3
    1026:	11 c0       	rjmp	.+34     	; 0x104a <vfprintf+0x326>
    1028:	a0 fe       	sbrs	r10, 0
    102a:	06 c0       	rjmp	.+12     	; 0x1038 <vfprintf+0x314>
    102c:	b2 14       	cp	r11, r2
    102e:	88 f4       	brcc	.+34     	; 0x1052 <vfprintf+0x32e>
    1030:	28 0c       	add	r2, r8
    1032:	92 2c       	mov	r9, r2
    1034:	9b 18       	sub	r9, r11
    1036:	0e c0       	rjmp	.+28     	; 0x1054 <vfprintf+0x330>
    1038:	b2 14       	cp	r11, r2
    103a:	60 f4       	brcc	.+24     	; 0x1054 <vfprintf+0x330>
    103c:	b6 01       	movw	r22, r12
    103e:	80 e2       	ldi	r24, 0x20	; 32
    1040:	90 e0       	ldi	r25, 0x00	; 0
    1042:	0e 94 89 08 	call	0x1112	; 0x1112 <fputc>
    1046:	b3 94       	inc	r11
    1048:	f7 cf       	rjmp	.-18     	; 0x1038 <vfprintf+0x314>
    104a:	b2 14       	cp	r11, r2
    104c:	18 f4       	brcc	.+6      	; 0x1054 <vfprintf+0x330>
    104e:	2b 18       	sub	r2, r11
    1050:	02 c0       	rjmp	.+4      	; 0x1056 <vfprintf+0x332>
    1052:	98 2c       	mov	r9, r8
    1054:	21 2c       	mov	r2, r1
    1056:	a4 fe       	sbrs	r10, 4
    1058:	10 c0       	rjmp	.+32     	; 0x107a <vfprintf+0x356>
    105a:	b6 01       	movw	r22, r12
    105c:	80 e3       	ldi	r24, 0x30	; 48
    105e:	90 e0       	ldi	r25, 0x00	; 0
    1060:	0e 94 89 08 	call	0x1112	; 0x1112 <fputc>
    1064:	a2 fe       	sbrs	r10, 2
    1066:	17 c0       	rjmp	.+46     	; 0x1096 <vfprintf+0x372>
    1068:	a1 fc       	sbrc	r10, 1
    106a:	03 c0       	rjmp	.+6      	; 0x1072 <vfprintf+0x34e>
    106c:	88 e7       	ldi	r24, 0x78	; 120
    106e:	90 e0       	ldi	r25, 0x00	; 0
    1070:	02 c0       	rjmp	.+4      	; 0x1076 <vfprintf+0x352>
    1072:	88 e5       	ldi	r24, 0x58	; 88
    1074:	90 e0       	ldi	r25, 0x00	; 0
    1076:	b6 01       	movw	r22, r12
    1078:	0c c0       	rjmp	.+24     	; 0x1092 <vfprintf+0x36e>
    107a:	8a 2d       	mov	r24, r10
    107c:	86 78       	andi	r24, 0x86	; 134
    107e:	59 f0       	breq	.+22     	; 0x1096 <vfprintf+0x372>
    1080:	a1 fe       	sbrs	r10, 1
    1082:	02 c0       	rjmp	.+4      	; 0x1088 <vfprintf+0x364>
    1084:	8b e2       	ldi	r24, 0x2B	; 43
    1086:	01 c0       	rjmp	.+2      	; 0x108a <vfprintf+0x366>
    1088:	80 e2       	ldi	r24, 0x20	; 32
    108a:	a7 fc       	sbrc	r10, 7
    108c:	8d e2       	ldi	r24, 0x2D	; 45
    108e:	b6 01       	movw	r22, r12
    1090:	90 e0       	ldi	r25, 0x00	; 0
    1092:	0e 94 89 08 	call	0x1112	; 0x1112 <fputc>
    1096:	89 14       	cp	r8, r9
    1098:	38 f4       	brcc	.+14     	; 0x10a8 <vfprintf+0x384>
    109a:	b6 01       	movw	r22, r12
    109c:	80 e3       	ldi	r24, 0x30	; 48
    109e:	90 e0       	ldi	r25, 0x00	; 0
    10a0:	0e 94 89 08 	call	0x1112	; 0x1112 <fputc>
    10a4:	9a 94       	dec	r9
    10a6:	f7 cf       	rjmp	.-18     	; 0x1096 <vfprintf+0x372>
    10a8:	8a 94       	dec	r8
    10aa:	f3 01       	movw	r30, r6
    10ac:	e8 0d       	add	r30, r8
    10ae:	f1 1d       	adc	r31, r1
    10b0:	80 81       	ld	r24, Z
    10b2:	b6 01       	movw	r22, r12
    10b4:	90 e0       	ldi	r25, 0x00	; 0
    10b6:	0e 94 89 08 	call	0x1112	; 0x1112 <fputc>
    10ba:	81 10       	cpse	r8, r1
    10bc:	f5 cf       	rjmp	.-22     	; 0x10a8 <vfprintf+0x384>
    10be:	22 20       	and	r2, r2
    10c0:	09 f4       	brne	.+2      	; 0x10c4 <vfprintf+0x3a0>
    10c2:	42 ce       	rjmp	.-892    	; 0xd48 <vfprintf+0x24>
    10c4:	b6 01       	movw	r22, r12
    10c6:	80 e2       	ldi	r24, 0x20	; 32
    10c8:	90 e0       	ldi	r25, 0x00	; 0
    10ca:	0e 94 89 08 	call	0x1112	; 0x1112 <fputc>
    10ce:	2a 94       	dec	r2
    10d0:	f6 cf       	rjmp	.-20     	; 0x10be <vfprintf+0x39a>
    10d2:	f6 01       	movw	r30, r12
    10d4:	86 81       	ldd	r24, Z+6	; 0x06
    10d6:	97 81       	ldd	r25, Z+7	; 0x07
    10d8:	02 c0       	rjmp	.+4      	; 0x10de <vfprintf+0x3ba>
    10da:	8f ef       	ldi	r24, 0xFF	; 255
    10dc:	9f ef       	ldi	r25, 0xFF	; 255
    10de:	2b 96       	adiw	r28, 0x0b	; 11
    10e0:	e2 e1       	ldi	r30, 0x12	; 18
    10e2:	0c 94 42 09 	jmp	0x1284	; 0x1284 <__epilogue_restores__>

000010e6 <strnlen_P>:
    10e6:	fc 01       	movw	r30, r24
    10e8:	05 90       	lpm	r0, Z+
    10ea:	61 50       	subi	r22, 0x01	; 1
    10ec:	70 40       	sbci	r23, 0x00	; 0
    10ee:	01 10       	cpse	r0, r1
    10f0:	d8 f7       	brcc	.-10     	; 0x10e8 <strnlen_P+0x2>
    10f2:	80 95       	com	r24
    10f4:	90 95       	com	r25
    10f6:	8e 0f       	add	r24, r30
    10f8:	9f 1f       	adc	r25, r31
    10fa:	08 95       	ret

000010fc <strnlen>:
    10fc:	fc 01       	movw	r30, r24
    10fe:	61 50       	subi	r22, 0x01	; 1
    1100:	70 40       	sbci	r23, 0x00	; 0
    1102:	01 90       	ld	r0, Z+
    1104:	01 10       	cpse	r0, r1
    1106:	d8 f7       	brcc	.-10     	; 0x10fe <strnlen+0x2>
    1108:	80 95       	com	r24
    110a:	90 95       	com	r25
    110c:	8e 0f       	add	r24, r30
    110e:	9f 1f       	adc	r25, r31
    1110:	08 95       	ret

00001112 <fputc>:
    1112:	0f 93       	push	r16
    1114:	1f 93       	push	r17
    1116:	cf 93       	push	r28
    1118:	df 93       	push	r29
    111a:	fb 01       	movw	r30, r22
    111c:	23 81       	ldd	r18, Z+3	; 0x03
    111e:	21 fd       	sbrc	r18, 1
    1120:	03 c0       	rjmp	.+6      	; 0x1128 <fputc+0x16>
    1122:	8f ef       	ldi	r24, 0xFF	; 255
    1124:	9f ef       	ldi	r25, 0xFF	; 255
    1126:	2c c0       	rjmp	.+88     	; 0x1180 <fputc+0x6e>
    1128:	22 ff       	sbrs	r18, 2
    112a:	16 c0       	rjmp	.+44     	; 0x1158 <fputc+0x46>
    112c:	46 81       	ldd	r20, Z+6	; 0x06
    112e:	57 81       	ldd	r21, Z+7	; 0x07
    1130:	24 81       	ldd	r18, Z+4	; 0x04
    1132:	35 81       	ldd	r19, Z+5	; 0x05
    1134:	42 17       	cp	r20, r18
    1136:	53 07       	cpc	r21, r19
    1138:	44 f4       	brge	.+16     	; 0x114a <fputc+0x38>
    113a:	a0 81       	ld	r26, Z
    113c:	b1 81       	ldd	r27, Z+1	; 0x01
    113e:	9d 01       	movw	r18, r26
    1140:	2f 5f       	subi	r18, 0xFF	; 255
    1142:	3f 4f       	sbci	r19, 0xFF	; 255
    1144:	20 83       	st	Z, r18
    1146:	31 83       	std	Z+1, r19	; 0x01
    1148:	8c 93       	st	X, r24
    114a:	26 81       	ldd	r18, Z+6	; 0x06
    114c:	37 81       	ldd	r19, Z+7	; 0x07
    114e:	2f 5f       	subi	r18, 0xFF	; 255
    1150:	3f 4f       	sbci	r19, 0xFF	; 255
    1152:	26 83       	std	Z+6, r18	; 0x06
    1154:	37 83       	std	Z+7, r19	; 0x07
    1156:	14 c0       	rjmp	.+40     	; 0x1180 <fputc+0x6e>
    1158:	8b 01       	movw	r16, r22
    115a:	ec 01       	movw	r28, r24
    115c:	fb 01       	movw	r30, r22
    115e:	00 84       	ldd	r0, Z+8	; 0x08
    1160:	f1 85       	ldd	r31, Z+9	; 0x09
    1162:	e0 2d       	mov	r30, r0
    1164:	09 95       	icall
    1166:	89 2b       	or	r24, r25
    1168:	e1 f6       	brne	.-72     	; 0x1122 <fputc+0x10>
    116a:	d8 01       	movw	r26, r16
    116c:	16 96       	adiw	r26, 0x06	; 6
    116e:	8d 91       	ld	r24, X+
    1170:	9c 91       	ld	r25, X
    1172:	17 97       	sbiw	r26, 0x07	; 7
    1174:	01 96       	adiw	r24, 0x01	; 1
    1176:	16 96       	adiw	r26, 0x06	; 6
    1178:	8d 93       	st	X+, r24
    117a:	9c 93       	st	X, r25
    117c:	17 97       	sbiw	r26, 0x07	; 7
    117e:	ce 01       	movw	r24, r28
    1180:	df 91       	pop	r29
    1182:	cf 91       	pop	r28
    1184:	1f 91       	pop	r17
    1186:	0f 91       	pop	r16
    1188:	08 95       	ret

0000118a <__ultoa_invert>:
    118a:	fa 01       	movw	r30, r20
    118c:	aa 27       	eor	r26, r26
    118e:	28 30       	cpi	r18, 0x08	; 8
    1190:	51 f1       	breq	.+84     	; 0x11e6 <__ultoa_invert+0x5c>
    1192:	20 31       	cpi	r18, 0x10	; 16
    1194:	81 f1       	breq	.+96     	; 0x11f6 <__ultoa_invert+0x6c>
    1196:	e8 94       	clt
    1198:	6f 93       	push	r22
    119a:	6e 7f       	andi	r22, 0xFE	; 254
    119c:	6e 5f       	subi	r22, 0xFE	; 254
    119e:	7f 4f       	sbci	r23, 0xFF	; 255
    11a0:	8f 4f       	sbci	r24, 0xFF	; 255
    11a2:	9f 4f       	sbci	r25, 0xFF	; 255
    11a4:	af 4f       	sbci	r26, 0xFF	; 255
    11a6:	b1 e0       	ldi	r27, 0x01	; 1
    11a8:	3e d0       	rcall	.+124    	; 0x1226 <__ultoa_invert+0x9c>
    11aa:	b4 e0       	ldi	r27, 0x04	; 4
    11ac:	3c d0       	rcall	.+120    	; 0x1226 <__ultoa_invert+0x9c>
    11ae:	67 0f       	add	r22, r23
    11b0:	78 1f       	adc	r23, r24
    11b2:	89 1f       	adc	r24, r25
    11b4:	9a 1f       	adc	r25, r26
    11b6:	a1 1d       	adc	r26, r1
    11b8:	68 0f       	add	r22, r24
    11ba:	79 1f       	adc	r23, r25
    11bc:	8a 1f       	adc	r24, r26
    11be:	91 1d       	adc	r25, r1
    11c0:	a1 1d       	adc	r26, r1
    11c2:	6a 0f       	add	r22, r26
    11c4:	71 1d       	adc	r23, r1
    11c6:	81 1d       	adc	r24, r1
    11c8:	91 1d       	adc	r25, r1
    11ca:	a1 1d       	adc	r26, r1
    11cc:	20 d0       	rcall	.+64     	; 0x120e <__ultoa_invert+0x84>
    11ce:	09 f4       	brne	.+2      	; 0x11d2 <__ultoa_invert+0x48>
    11d0:	68 94       	set
    11d2:	3f 91       	pop	r19
    11d4:	2a e0       	ldi	r18, 0x0A	; 10
    11d6:	26 9f       	mul	r18, r22
    11d8:	11 24       	eor	r1, r1
    11da:	30 19       	sub	r19, r0
    11dc:	30 5d       	subi	r19, 0xD0	; 208
    11de:	31 93       	st	Z+, r19
    11e0:	de f6       	brtc	.-74     	; 0x1198 <__ultoa_invert+0xe>
    11e2:	cf 01       	movw	r24, r30
    11e4:	08 95       	ret
    11e6:	46 2f       	mov	r20, r22
    11e8:	47 70       	andi	r20, 0x07	; 7
    11ea:	40 5d       	subi	r20, 0xD0	; 208
    11ec:	41 93       	st	Z+, r20
    11ee:	b3 e0       	ldi	r27, 0x03	; 3
    11f0:	0f d0       	rcall	.+30     	; 0x1210 <__ultoa_invert+0x86>
    11f2:	c9 f7       	brne	.-14     	; 0x11e6 <__ultoa_invert+0x5c>
    11f4:	f6 cf       	rjmp	.-20     	; 0x11e2 <__ultoa_invert+0x58>
    11f6:	46 2f       	mov	r20, r22
    11f8:	4f 70       	andi	r20, 0x0F	; 15
    11fa:	40 5d       	subi	r20, 0xD0	; 208
    11fc:	4a 33       	cpi	r20, 0x3A	; 58
    11fe:	18 f0       	brcs	.+6      	; 0x1206 <__ultoa_invert+0x7c>
    1200:	49 5d       	subi	r20, 0xD9	; 217
    1202:	31 fd       	sbrc	r19, 1
    1204:	40 52       	subi	r20, 0x20	; 32
    1206:	41 93       	st	Z+, r20
    1208:	02 d0       	rcall	.+4      	; 0x120e <__ultoa_invert+0x84>
    120a:	a9 f7       	brne	.-22     	; 0x11f6 <__ultoa_invert+0x6c>
    120c:	ea cf       	rjmp	.-44     	; 0x11e2 <__ultoa_invert+0x58>
    120e:	b4 e0       	ldi	r27, 0x04	; 4
    1210:	a6 95       	lsr	r26
    1212:	97 95       	ror	r25
    1214:	87 95       	ror	r24
    1216:	77 95       	ror	r23
    1218:	67 95       	ror	r22
    121a:	ba 95       	dec	r27
    121c:	c9 f7       	brne	.-14     	; 0x1210 <__ultoa_invert+0x86>
    121e:	00 97       	sbiw	r24, 0x00	; 0
    1220:	61 05       	cpc	r22, r1
    1222:	71 05       	cpc	r23, r1
    1224:	08 95       	ret
    1226:	9b 01       	movw	r18, r22
    1228:	ac 01       	movw	r20, r24
    122a:	0a 2e       	mov	r0, r26
    122c:	06 94       	lsr	r0
    122e:	57 95       	ror	r21
    1230:	47 95       	ror	r20
    1232:	37 95       	ror	r19
    1234:	27 95       	ror	r18
    1236:	ba 95       	dec	r27
    1238:	c9 f7       	brne	.-14     	; 0x122c <__ultoa_invert+0xa2>
    123a:	62 0f       	add	r22, r18
    123c:	73 1f       	adc	r23, r19
    123e:	84 1f       	adc	r24, r20
    1240:	95 1f       	adc	r25, r21
    1242:	a0 1d       	adc	r26, r0
    1244:	08 95       	ret

00001246 <ccp_write_io>:
    1246:	dc 01       	movw	r26, r24
    1248:	28 ed       	ldi	r18, 0xD8	; 216
    124a:	20 93 34 00 	sts	0x0034, r18	; 0x800034 <__TEXT_REGION_LENGTH__+0x7f0034>
    124e:	6c 93       	st	X, r22
    1250:	08 95       	ret

00001252 <__prologue_saves__>:
    1252:	2f 92       	push	r2
    1254:	3f 92       	push	r3
    1256:	4f 92       	push	r4
    1258:	5f 92       	push	r5
    125a:	6f 92       	push	r6
    125c:	7f 92       	push	r7
    125e:	8f 92       	push	r8
    1260:	9f 92       	push	r9
    1262:	af 92       	push	r10
    1264:	bf 92       	push	r11
    1266:	cf 92       	push	r12
    1268:	df 92       	push	r13
    126a:	ef 92       	push	r14
    126c:	ff 92       	push	r15
    126e:	0f 93       	push	r16
    1270:	1f 93       	push	r17
    1272:	cf 93       	push	r28
    1274:	df 93       	push	r29
    1276:	cd b7       	in	r28, 0x3d	; 61
    1278:	de b7       	in	r29, 0x3e	; 62
    127a:	ca 1b       	sub	r28, r26
    127c:	db 0b       	sbc	r29, r27
    127e:	cd bf       	out	0x3d, r28	; 61
    1280:	de bf       	out	0x3e, r29	; 62
    1282:	09 94       	ijmp

00001284 <__epilogue_restores__>:
    1284:	2a 88       	ldd	r2, Y+18	; 0x12
    1286:	39 88       	ldd	r3, Y+17	; 0x11
    1288:	48 88       	ldd	r4, Y+16	; 0x10
    128a:	5f 84       	ldd	r5, Y+15	; 0x0f
    128c:	6e 84       	ldd	r6, Y+14	; 0x0e
    128e:	7d 84       	ldd	r7, Y+13	; 0x0d
    1290:	8c 84       	ldd	r8, Y+12	; 0x0c
    1292:	9b 84       	ldd	r9, Y+11	; 0x0b
    1294:	aa 84       	ldd	r10, Y+10	; 0x0a
    1296:	b9 84       	ldd	r11, Y+9	; 0x09
    1298:	c8 84       	ldd	r12, Y+8	; 0x08
    129a:	df 80       	ldd	r13, Y+7	; 0x07
    129c:	ee 80       	ldd	r14, Y+6	; 0x06
    129e:	fd 80       	ldd	r15, Y+5	; 0x05
    12a0:	0c 81       	ldd	r16, Y+4	; 0x04
    12a2:	1b 81       	ldd	r17, Y+3	; 0x03
    12a4:	aa 81       	ldd	r26, Y+2	; 0x02
    12a6:	b9 81       	ldd	r27, Y+1	; 0x01
    12a8:	ce 0f       	add	r28, r30
    12aa:	d1 1d       	adc	r29, r1
    12ac:	cd bf       	out	0x3d, r28	; 61
    12ae:	de bf       	out	0x3e, r29	; 62
    12b0:	ed 01       	movw	r28, r26
    12b2:	08 95       	ret

000012b4 <_exit>:
    12b4:	f8 94       	cli

000012b6 <__stop_program>:
    12b6:	ff cf       	rjmp	.-2      	; 0x12b6 <__stop_program>
