
AVR64DD32-SIM800L-HS180S10B.elf:     file format elf32-avr

Sections:
Idx Name          Size      VMA       LMA       File off  Algn
  0 .data         0000052a  00806000  00001444  000014d8  2**0
                  CONTENTS, ALLOC, LOAD, DATA
  1 .text         00001444  00000000  00000000  00000094  2**1
                  CONTENTS, ALLOC, LOAD, READONLY, CODE
  2 .bss          00000054  0080652a  0080652a  00001a02  2**0
                  ALLOC
  3 .comment      0000005c  00000000  00000000  00001a02  2**0
                  CONTENTS, READONLY
  4 .note.gnu.avr.deviceinfo 0000003c  00000000  00000000  00001a60  2**2
                  CONTENTS, READONLY
  5 .debug_aranges 00000218  00000000  00000000  00001aa0  2**3
                  CONTENTS, READONLY, DEBUGGING
  6 .debug_info   00005871  00000000  00000000  00001cb8  2**0
                  CONTENTS, READONLY, DEBUGGING
  7 .debug_abbrev 00002dce  00000000  00000000  00007529  2**0
                  CONTENTS, READONLY, DEBUGGING
  8 .debug_line   00001892  00000000  00000000  0000a2f7  2**0
                  CONTENTS, READONLY, DEBUGGING
  9 .debug_frame  000005f4  00000000  00000000  0000bb8c  2**2
                  CONTENTS, READONLY, DEBUGGING
 10 .debug_str    00001f21  00000000  00000000  0000c180  2**0
                  CONTENTS, READONLY, DEBUGGING
 11 .debug_loc    00001e50  00000000  00000000  0000e0a1  2**0
                  CONTENTS, READONLY, DEBUGGING
 12 .debug_ranges 00000178  00000000  00000000  0000fef1  2**0
                  CONTENTS, READONLY, DEBUGGING

Disassembly of section .text:

00000000 <__vectors>:
       0:	0c 94 48 00 	jmp	0x90	; 0x90 <__ctors_end>
       4:	0c 94 65 00 	jmp	0xca	; 0xca <__bad_interrupt>
       8:	0c 94 65 00 	jmp	0xca	; 0xca <__bad_interrupt>
       c:	0c 94 65 00 	jmp	0xca	; 0xca <__bad_interrupt>
      10:	0c 94 65 00 	jmp	0xca	; 0xca <__bad_interrupt>
      14:	0c 94 65 00 	jmp	0xca	; 0xca <__bad_interrupt>
      18:	0c 94 65 00 	jmp	0xca	; 0xca <__bad_interrupt>
      1c:	0c 94 65 00 	jmp	0xca	; 0xca <__bad_interrupt>
      20:	0c 94 65 00 	jmp	0xca	; 0xca <__bad_interrupt>
      24:	0c 94 65 00 	jmp	0xca	; 0xca <__bad_interrupt>
      28:	0c 94 65 00 	jmp	0xca	; 0xca <__bad_interrupt>
      2c:	0c 94 65 00 	jmp	0xca	; 0xca <__bad_interrupt>
      30:	0c 94 65 00 	jmp	0xca	; 0xca <__bad_interrupt>
      34:	0c 94 65 00 	jmp	0xca	; 0xca <__bad_interrupt>
      38:	0c 94 65 00 	jmp	0xca	; 0xca <__bad_interrupt>
      3c:	0c 94 65 00 	jmp	0xca	; 0xca <__bad_interrupt>
      40:	0c 94 65 00 	jmp	0xca	; 0xca <__bad_interrupt>
      44:	0c 94 65 00 	jmp	0xca	; 0xca <__bad_interrupt>
      48:	0c 94 65 00 	jmp	0xca	; 0xca <__bad_interrupt>
      4c:	0c 94 65 00 	jmp	0xca	; 0xca <__bad_interrupt>
      50:	0c 94 65 00 	jmp	0xca	; 0xca <__bad_interrupt>
      54:	0c 94 65 00 	jmp	0xca	; 0xca <__bad_interrupt>
      58:	0c 94 65 00 	jmp	0xca	; 0xca <__bad_interrupt>
      5c:	0c 94 65 00 	jmp	0xca	; 0xca <__bad_interrupt>
      60:	0c 94 65 00 	jmp	0xca	; 0xca <__bad_interrupt>
      64:	0c 94 65 00 	jmp	0xca	; 0xca <__bad_interrupt>
      68:	0c 94 65 00 	jmp	0xca	; 0xca <__bad_interrupt>
      6c:	0c 94 65 00 	jmp	0xca	; 0xca <__bad_interrupt>
      70:	0c 94 65 00 	jmp	0xca	; 0xca <__bad_interrupt>
      74:	0c 94 65 00 	jmp	0xca	; 0xca <__bad_interrupt>
      78:	0c 94 65 00 	jmp	0xca	; 0xca <__bad_interrupt>
      7c:	0c 94 65 00 	jmp	0xca	; 0xca <__bad_interrupt>
      80:	0c 94 65 00 	jmp	0xca	; 0xca <__bad_interrupt>
      84:	0c 94 65 00 	jmp	0xca	; 0xca <__bad_interrupt>
      88:	0c 94 65 00 	jmp	0xca	; 0xca <__bad_interrupt>
      8c:	0c 94 65 00 	jmp	0xca	; 0xca <__bad_interrupt>

00000090 <__ctors_end>:
      90:	11 24       	eor	r1, r1
      92:	1f be       	out	0x3f, r1	; 63
      94:	cf ef       	ldi	r28, 0xFF	; 255
      96:	cd bf       	out	0x3d, r28	; 61
      98:	df e7       	ldi	r29, 0x7F	; 127
      9a:	de bf       	out	0x3e, r29	; 62

0000009c <__do_copy_data>:
      9c:	15 e6       	ldi	r17, 0x65	; 101
      9e:	a0 e0       	ldi	r26, 0x00	; 0
      a0:	b0 e6       	ldi	r27, 0x60	; 96
      a2:	e4 e4       	ldi	r30, 0x44	; 68
      a4:	f4 e1       	ldi	r31, 0x14	; 20
      a6:	02 c0       	rjmp	.+4      	; 0xac <__do_copy_data+0x10>
      a8:	05 90       	lpm	r0, Z+
      aa:	0d 92       	st	X+, r0
      ac:	aa 32       	cpi	r26, 0x2A	; 42
      ae:	b1 07       	cpc	r27, r17
      b0:	d9 f7       	brne	.-10     	; 0xa8 <__do_copy_data+0xc>

000000b2 <__do_clear_bss>:
      b2:	25 e6       	ldi	r18, 0x65	; 101
      b4:	aa e2       	ldi	r26, 0x2A	; 42
      b6:	b5 e6       	ldi	r27, 0x65	; 101
      b8:	01 c0       	rjmp	.+2      	; 0xbc <.do_clear_bss_start>

000000ba <.do_clear_bss_loop>:
      ba:	1d 92       	st	X+, r1

000000bc <.do_clear_bss_start>:
      bc:	ae 37       	cpi	r26, 0x7E	; 126
      be:	b2 07       	cpc	r27, r18
      c0:	e1 f7       	brne	.-8      	; 0xba <.do_clear_bss_loop>
      c2:	0e 94 ec 01 	call	0x3d8	; 0x3d8 <main>
      c6:	0c 94 20 0a 	jmp	0x1440	; 0x1440 <_exit>

000000ca <__bad_interrupt>:
      ca:	0c 94 00 00 	jmp	0	; 0x0 <__vectors>

000000ce <split_fields>:
 * @param fields     Array of pointers to store extracted fields.
 * @param max_fields Maximum number of fields to extract.
 *
 * @return Number of fields successfully extracted.
 */
int split_fields(char *line, char *fields[], int max_fields) {
      ce:	cf 93       	push	r28
      d0:	df 93       	push	r29
      d2:	fc 01       	movw	r30, r24
	 int count = 0;
	 char *ptr = line;
	 char *start = ptr;
      d4:	ec 01       	movw	r28, r24
 * @param max_fields Maximum number of fields to extract.
 *
 * @return Number of fields successfully extracted.
 */
int split_fields(char *line, char *fields[], int max_fields) {
	 int count = 0;
      d6:	20 e0       	ldi	r18, 0x00	; 0
      d8:	30 e0       	ldi	r19, 0x00	; 0
	 char *ptr = line;
	 char *start = ptr;
	 while (*ptr && count < max_fields) {
      da:	0f c0       	rjmp	.+30     	; 0xfa <split_fields+0x2c>
		 if (*ptr == ',') {
      dc:	9c 32       	cpi	r25, 0x2C	; 44
      de:	61 f4       	brne	.+24     	; 0xf8 <split_fields+0x2a>
			 *ptr = '\0';
      e0:	10 82       	st	Z, r1
			 fields[count++] = start;
      e2:	d9 01       	movw	r26, r18
      e4:	aa 0f       	add	r26, r26
      e6:	bb 1f       	adc	r27, r27
      e8:	a6 0f       	add	r26, r22
      ea:	b7 1f       	adc	r27, r23
      ec:	cd 93       	st	X+, r28
      ee:	dc 93       	st	X, r29
			 start = ptr + 1;
      f0:	ef 01       	movw	r28, r30
      f2:	21 96       	adiw	r28, 0x01	; 1
	 char *ptr = line;
	 char *start = ptr;
	 while (*ptr && count < max_fields) {
		 if (*ptr == ',') {
			 *ptr = '\0';
			 fields[count++] = start;
      f4:	2f 5f       	subi	r18, 0xFF	; 255
      f6:	3f 4f       	sbci	r19, 0xFF	; 255
			 start = ptr + 1;
		 }
		 ptr++;
      f8:	31 96       	adiw	r30, 0x01	; 1
 */
int split_fields(char *line, char *fields[], int max_fields) {
	 int count = 0;
	 char *ptr = line;
	 char *start = ptr;
	 while (*ptr && count < max_fields) {
      fa:	90 81       	ld	r25, Z
      fc:	99 23       	and	r25, r25
      fe:	19 f0       	breq	.+6      	; 0x106 <__EEPROM_REGION_LENGTH__+0x6>
     100:	24 17       	cp	r18, r20
     102:	35 07       	cpc	r19, r21
     104:	5c f3       	brlt	.-42     	; 0xdc <split_fields+0xe>
			 fields[count++] = start;
			 start = ptr + 1;
		 }
		 ptr++;
	 }
	 if (count < max_fields && start < ptr) {
     106:	24 17       	cp	r18, r20
     108:	35 07       	cpc	r19, r21
     10a:	6c f4       	brge	.+26     	; 0x126 <__EEPROM_REGION_LENGTH__+0x26>
     10c:	ce 17       	cp	r28, r30
     10e:	df 07       	cpc	r29, r31
     110:	50 f4       	brcc	.+20     	; 0x126 <__EEPROM_REGION_LENGTH__+0x26>
		 fields[count++] = start;
     112:	c9 01       	movw	r24, r18
     114:	88 0f       	add	r24, r24
     116:	99 1f       	adc	r25, r25
     118:	fb 01       	movw	r30, r22
     11a:	e8 0f       	add	r30, r24
     11c:	f9 1f       	adc	r31, r25
     11e:	c0 83       	st	Z, r28
     120:	d1 83       	std	Z+1, r29	; 0x01
     122:	2f 5f       	subi	r18, 0xFF	; 255
     124:	3f 4f       	sbci	r19, 0xFF	; 255
	 }
	 return count;
 }
     126:	c9 01       	movw	r24, r18
     128:	df 91       	pop	r29
     12a:	cf 91       	pop	r28
     12c:	08 95       	ret

0000012e <parse_GNRMC>:
 * @param buffer Input NMEA data buffer (string containing multiple sentences).
 * @param r      Pointer to the RMC_Data structure to fill with parsed values.
 *
 * @return true if parsing was successful, false otherwise.
 */
bool parse_GNRMC(const char *buffer, RMC_Data *r) {// only time and date
     12e:	0f 93       	push	r16
     130:	1f 93       	push	r17
     132:	cf 93       	push	r28
     134:	df 93       	push	r29
     136:	cd b7       	in	r28, 0x3d	; 61
     138:	de b7       	in	r29, 0x3e	; 62
     13a:	ca 55       	subi	r28, 0x5A	; 90
     13c:	d1 09       	sbc	r29, r1
     13e:	cd bf       	out	0x3d, r28	; 61
     140:	de bf       	out	0x3e, r29	; 62
     142:	8b 01       	movw	r16, r22
	const char *line = strstr(buffer, "$GNRMC");
     144:	60 e0       	ldi	r22, 0x00	; 0
     146:	70 e6       	ldi	r23, 0x60	; 96
     148:	0e 94 e2 06 	call	0xdc4	; 0xdc4 <strstr>
	if (!line) return false;
     14c:	00 97       	sbiw	r24, 0x00	; 0
     14e:	09 f4       	brne	.+2      	; 0x152 <parse_GNRMC+0x24>
     150:	6d c0       	rjmp	.+218    	; 0x22c <parse_GNRMC+0xfe>
	char copy[NMEA_BUFFER_SIZE];
	strncpy(copy, line, sizeof(copy) - 1);
     152:	4b e3       	ldi	r20, 0x3B	; 59
     154:	50 e0       	ldi	r21, 0x00	; 0
     156:	bc 01       	movw	r22, r24
     158:	ce 01       	movw	r24, r28
     15a:	01 96       	adiw	r24, 0x01	; 1
     15c:	0e 94 d3 06 	call	0xda6	; 0xda6 <strncpy>
	copy[sizeof(copy) - 1] = '\0';
     160:	1c ae       	std	Y+60, r1	; 0x3c
	char *fields[15] = {0};
     162:	be 01       	movw	r22, r28
     164:	63 5c       	subi	r22, 0xC3	; 195
     166:	7f 4f       	sbci	r23, 0xFF	; 255
     168:	8e e1       	ldi	r24, 0x1E	; 30
     16a:	fb 01       	movw	r30, r22
     16c:	11 92       	st	Z+, r1
     16e:	8a 95       	dec	r24
     170:	e9 f7       	brne	.-6      	; 0x16c <parse_GNRMC+0x3e>
	int count = split_fields(copy, fields, 15);
     172:	4f e0       	ldi	r20, 0x0F	; 15
     174:	50 e0       	ldi	r21, 0x00	; 0
     176:	ce 01       	movw	r24, r28
     178:	01 96       	adiw	r24, 0x01	; 1
     17a:	0e 94 67 00 	call	0xce	; 0xce <split_fields>
	if (count < 10) return false;
     17e:	0a 97       	sbiw	r24, 0x0a	; 10
     180:	0c f4       	brge	.+2      	; 0x184 <parse_GNRMC+0x56>
     182:	56 c0       	rjmp	.+172    	; 0x230 <parse_GNRMC+0x102>
	if (fields[1] && strlen(fields[1]) >= 6) {
     184:	21 96       	adiw	r28, 0x01	; 1
     186:	ae ad       	ldd	r26, Y+62	; 0x3e
     188:	bf ad       	ldd	r27, Y+63	; 0x3f
     18a:	21 97       	sbiw	r28, 0x01	; 1
     18c:	10 97       	sbiw	r26, 0x00	; 0
     18e:	99 f1       	breq	.+102    	; 0x1f6 <parse_GNRMC+0xc8>
     190:	fd 01       	movw	r30, r26
     192:	01 90       	ld	r0, Z+
     194:	00 20       	and	r0, r0
     196:	e9 f7       	brne	.-6      	; 0x192 <parse_GNRMC+0x64>
     198:	31 97       	sbiw	r30, 0x01	; 1
     19a:	ea 1b       	sub	r30, r26
     19c:	fb 0b       	sbc	r31, r27
     19e:	36 97       	sbiw	r30, 0x06	; 6
     1a0:	50 f1       	brcs	.+84     	; 0x1f6 <parse_GNRMC+0xc8>
		snprintf(r->utc, sizeof(r->utc), "%c%c:%c%c:%c%c",
		fields[1][0], fields[1][1],
		fields[1][2], fields[1][3],
		fields[1][4], fields[1][5]);
     1a2:	15 96       	adiw	r26, 0x05	; 5
     1a4:	5c 91       	ld	r21, X
     1a6:	15 97       	sbiw	r26, 0x05	; 5
     1a8:	14 96       	adiw	r26, 0x04	; 4
     1aa:	4c 91       	ld	r20, X
     1ac:	14 97       	sbiw	r26, 0x04	; 4
	int count = split_fields(copy, fields, 15);
	if (count < 10) return false;
	if (fields[1] && strlen(fields[1]) >= 6) {
		snprintf(r->utc, sizeof(r->utc), "%c%c:%c%c:%c%c",
		fields[1][0], fields[1][1],
		fields[1][2], fields[1][3],
     1ae:	13 96       	adiw	r26, 0x03	; 3
     1b0:	3c 91       	ld	r19, X
     1b2:	13 97       	sbiw	r26, 0x03	; 3
     1b4:	12 96       	adiw	r26, 0x02	; 2
     1b6:	2c 91       	ld	r18, X
     1b8:	12 97       	sbiw	r26, 0x02	; 2
	char *fields[15] = {0};
	int count = split_fields(copy, fields, 15);
	if (count < 10) return false;
	if (fields[1] && strlen(fields[1]) >= 6) {
		snprintf(r->utc, sizeof(r->utc), "%c%c:%c%c:%c%c",
		fields[1][0], fields[1][1],
     1ba:	11 96       	adiw	r26, 0x01	; 1
     1bc:	9c 91       	ld	r25, X
     1be:	11 97       	sbiw	r26, 0x01	; 1
     1c0:	8c 91       	ld	r24, X
	copy[sizeof(copy) - 1] = '\0';
	char *fields[15] = {0};
	int count = split_fields(copy, fields, 15);
	if (count < 10) return false;
	if (fields[1] && strlen(fields[1]) >= 6) {
		snprintf(r->utc, sizeof(r->utc), "%c%c:%c%c:%c%c",
     1c2:	1f 92       	push	r1
     1c4:	5f 93       	push	r21
     1c6:	1f 92       	push	r1
     1c8:	4f 93       	push	r20
     1ca:	1f 92       	push	r1
     1cc:	3f 93       	push	r19
     1ce:	1f 92       	push	r1
     1d0:	2f 93       	push	r18
     1d2:	1f 92       	push	r1
     1d4:	9f 93       	push	r25
     1d6:	1f 92       	push	r1
     1d8:	8f 93       	push	r24
     1da:	87 e0       	ldi	r24, 0x07	; 7
     1dc:	90 e6       	ldi	r25, 0x60	; 96
     1de:	9f 93       	push	r25
     1e0:	8f 93       	push	r24
     1e2:	1f 92       	push	r1
     1e4:	8b e0       	ldi	r24, 0x0B	; 11
     1e6:	8f 93       	push	r24
     1e8:	1f 93       	push	r17
     1ea:	0f 93       	push	r16
     1ec:	0e 94 fc 06 	call	0xdf8	; 0xdf8 <snprintf>
     1f0:	cd bf       	out	0x3d, r28	; 61
     1f2:	de bf       	out	0x3e, r29	; 62
     1f4:	08 c0       	rjmp	.+16     	; 0x206 <parse_GNRMC+0xd8>
		fields[1][0], fields[1][1],
		fields[1][2], fields[1][3],
		fields[1][4], fields[1][5]);
		} else {
		strcpy(r->utc, "00:00:00");
     1f6:	89 e0       	ldi	r24, 0x09	; 9
     1f8:	e6 e1       	ldi	r30, 0x16	; 22
     1fa:	f0 e6       	ldi	r31, 0x60	; 96
     1fc:	d8 01       	movw	r26, r16
     1fe:	01 90       	ld	r0, Z+
     200:	0d 92       	st	X+, r0
     202:	8a 95       	dec	r24
     204:	e1 f7       	brne	.-8      	; 0x1fe <parse_GNRMC+0xd0>
	}
	if (fields[9]) strncpy(r->date, fields[9], sizeof(r->date));
     206:	61 96       	adiw	r28, 0x11	; 17
     208:	6e ad       	ldd	r22, Y+62	; 0x3e
     20a:	7f ad       	ldd	r23, Y+63	; 0x3f
     20c:	61 97       	sbiw	r28, 0x11	; 17
     20e:	61 15       	cp	r22, r1
     210:	71 05       	cpc	r23, r1
     212:	41 f0       	breq	.+16     	; 0x224 <parse_GNRMC+0xf6>
     214:	49 e0       	ldi	r20, 0x09	; 9
     216:	50 e0       	ldi	r21, 0x00	; 0
     218:	c8 01       	movw	r24, r16
     21a:	0b 96       	adiw	r24, 0x0b	; 11
     21c:	0e 94 d3 06 	call	0xda6	; 0xda6 <strncpy>
	else r->date[0] = '\0';
	return true;
     220:	81 e0       	ldi	r24, 0x01	; 1
     222:	07 c0       	rjmp	.+14     	; 0x232 <parse_GNRMC+0x104>
		fields[1][4], fields[1][5]);
		} else {
		strcpy(r->utc, "00:00:00");
	}
	if (fields[9]) strncpy(r->date, fields[9], sizeof(r->date));
	else r->date[0] = '\0';
     224:	f8 01       	movw	r30, r16
     226:	13 86       	std	Z+11, r1	; 0x0b
	return true;
     228:	81 e0       	ldi	r24, 0x01	; 1
     22a:	03 c0       	rjmp	.+6      	; 0x232 <parse_GNRMC+0x104>
 *
 * @return true if parsing was successful, false otherwise.
 */
bool parse_GNRMC(const char *buffer, RMC_Data *r) {// only time and date
	const char *line = strstr(buffer, "$GNRMC");
	if (!line) return false;
     22c:	80 e0       	ldi	r24, 0x00	; 0
     22e:	01 c0       	rjmp	.+2      	; 0x232 <parse_GNRMC+0x104>
	char copy[NMEA_BUFFER_SIZE];
	strncpy(copy, line, sizeof(copy) - 1);
	copy[sizeof(copy) - 1] = '\0';
	char *fields[15] = {0};
	int count = split_fields(copy, fields, 15);
	if (count < 10) return false;
     230:	80 e0       	ldi	r24, 0x00	; 0
		strcpy(r->utc, "00:00:00");
	}
	if (fields[9]) strncpy(r->date, fields[9], sizeof(r->date));
	else r->date[0] = '\0';
	return true;
}
     232:	c6 5a       	subi	r28, 0xA6	; 166
     234:	df 4f       	sbci	r29, 0xFF	; 255
     236:	cd bf       	out	0x3d, r28	; 61
     238:	de bf       	out	0x3e, r29	; 62
     23a:	df 91       	pop	r29
     23c:	cf 91       	pop	r28
     23e:	1f 91       	pop	r17
     240:	0f 91       	pop	r16
     242:	08 95       	ret

00000244 <display_gps_date_and_time>:


void display_gps_date_and_time(AllGPSData *data) {
     244:	0f 93       	push	r16
     246:	1f 93       	push	r17
     248:	cf 93       	push	r28
     24a:	df 93       	push	r29
     24c:	ec 01       	movw	r28, r24

	memset(data, 0, sizeof(AllGPSData));
     24e:	85 e1       	ldi	r24, 0x15	; 21
     250:	fe 01       	movw	r30, r28
     252:	11 92       	st	Z+, r1
     254:	8a 95       	dec	r24
     256:	e9 f7       	brne	.-6      	; 0x252 <display_gps_date_and_time+0xe>
	if (strstr(buffer, "$GNRMC") && parse_GNRMC(buffer, &data->rmc)) {
     258:	60 e0       	ldi	r22, 0x00	; 0
     25a:	70 e6       	ldi	r23, 0x60	; 96
     25c:	8a e2       	ldi	r24, 0x2A	; 42
     25e:	95 e6       	ldi	r25, 0x65	; 101
     260:	0e 94 e2 06 	call	0xdc4	; 0xdc4 <strstr>
     264:	89 2b       	or	r24, r25
     266:	49 f0       	breq	.+18     	; 0x27a <display_gps_date_and_time+0x36>
     268:	be 01       	movw	r22, r28
     26a:	8a e2       	ldi	r24, 0x2A	; 42
     26c:	95 e6       	ldi	r25, 0x65	; 101
     26e:	0e 94 97 00 	call	0x12e	; 0x12e <parse_GNRMC>
     272:	88 23       	and	r24, r24
     274:	11 f0       	breq	.+4      	; 0x27a <display_gps_date_and_time+0x36>
		data->has_rmc = true;
     276:	81 e0       	ldi	r24, 0x01	; 1
     278:	8c 8b       	std	Y+20, r24	; 0x14
	}
	st7735_draw_text(0, 16 ,"laikas:", GREEN, BLACK);
     27a:	00 e0       	ldi	r16, 0x00	; 0
     27c:	10 e0       	ldi	r17, 0x00	; 0
     27e:	20 ee       	ldi	r18, 0xE0	; 224
     280:	37 e0       	ldi	r19, 0x07	; 7
     282:	4f e1       	ldi	r20, 0x1F	; 31
     284:	50 e6       	ldi	r21, 0x60	; 96
     286:	60 e1       	ldi	r22, 0x10	; 16
     288:	70 e0       	ldi	r23, 0x00	; 0
     28a:	80 e0       	ldi	r24, 0x00	; 0
     28c:	90 e0       	ldi	r25, 0x00	; 0
     28e:	0e 94 ac 05 	call	0xb58	; 0xb58 <st7735_draw_text>
	st7735_draw_text(48, 16 ,data->rmc.date, GREEN, BLACK);
     292:	ae 01       	movw	r20, r28
     294:	45 5f       	subi	r20, 0xF5	; 245
     296:	5f 4f       	sbci	r21, 0xFF	; 255
     298:	20 ee       	ldi	r18, 0xE0	; 224
     29a:	37 e0       	ldi	r19, 0x07	; 7
     29c:	60 e1       	ldi	r22, 0x10	; 16
     29e:	70 e0       	ldi	r23, 0x00	; 0
     2a0:	80 e3       	ldi	r24, 0x30	; 48
     2a2:	90 e0       	ldi	r25, 0x00	; 0
     2a4:	0e 94 ac 05 	call	0xb58	; 0xb58 <st7735_draw_text>
	st7735_draw_text(0, 24 ,"data:", GREEN, BLACK);
     2a8:	20 ee       	ldi	r18, 0xE0	; 224
     2aa:	37 e0       	ldi	r19, 0x07	; 7
     2ac:	47 e2       	ldi	r20, 0x27	; 39
     2ae:	50 e6       	ldi	r21, 0x60	; 96
     2b0:	68 e1       	ldi	r22, 0x18	; 24
     2b2:	70 e0       	ldi	r23, 0x00	; 0
     2b4:	80 e0       	ldi	r24, 0x00	; 0
     2b6:	90 e0       	ldi	r25, 0x00	; 0
     2b8:	0e 94 ac 05 	call	0xb58	; 0xb58 <st7735_draw_text>
	st7735_draw_text(48, 24 ,data->rmc.utc, GREEN, BLACK);
     2bc:	20 ee       	ldi	r18, 0xE0	; 224
     2be:	37 e0       	ldi	r19, 0x07	; 7
     2c0:	ae 01       	movw	r20, r28
     2c2:	68 e1       	ldi	r22, 0x18	; 24
     2c4:	70 e0       	ldi	r23, 0x00	; 0
     2c6:	80 e3       	ldi	r24, 0x30	; 48
     2c8:	90 e0       	ldi	r25, 0x00	; 0
     2ca:	0e 94 ac 05 	call	0xb58	; 0xb58 <st7735_draw_text>

}
     2ce:	df 91       	pop	r29
     2d0:	cf 91       	pop	r28
     2d2:	1f 91       	pop	r17
     2d4:	0f 91       	pop	r16
     2d6:	08 95       	ret

000002d8 <BK280_Data_Read>:
 * This function fills the global `buffer` with all NMEA sentences starting from
 * the first detected $GNRMC sentence and ending after a $GNGLL sentence (terminated by CRLF).
 *
 * @note Uses a blocking read approach with `USART0_readChar()`.
 */
void BK280_Data_Read(void) {
     2d8:	0f 93       	push	r16
     2da:	1f 93       	push	r17
     2dc:	cf 93       	push	r28
     2de:	df 93       	push	r29
	uint16_t index = 0;
	bool capturing = false;
	static const char target[] = "$GNRMC";
	uint8_t match_index = 0;
     2e0:	10 e0       	ldi	r17, 0x00	; 0
 *
 * @note Uses a blocking read approach with `USART0_readChar()`.
 */
void BK280_Data_Read(void) {
	uint16_t index = 0;
	bool capturing = false;
     2e2:	00 e0       	ldi	r16, 0x00	; 0
 * the first detected $GNRMC sentence and ending after a $GNGLL sentence (terminated by CRLF).
 *
 * @note Uses a blocking read approach with `USART0_readChar()`.
 */
void BK280_Data_Read(void) {
	uint16_t index = 0;
     2e4:	c0 e0       	ldi	r28, 0x00	; 0
     2e6:	d0 e0       	ldi	r29, 0x00	; 0
	bool capturing = false;
	static const char target[] = "$GNRMC";
	uint8_t match_index = 0;

	while (1) {
		char c = USART0_readChar();
     2e8:	0e 94 fa 05 	call	0xbf4	; 0xbf4 <USART0_readChar>

		if (!capturing) {
     2ec:	01 11       	cpse	r16, r1
     2ee:	1a c0       	rjmp	.+52     	; 0x324 <BK280_Data_Read+0x4c>
			if (c == target[match_index]) {
     2f0:	e1 2f       	mov	r30, r17
     2f2:	f0 e0       	ldi	r31, 0x00	; 0
     2f4:	e3 5d       	subi	r30, 0xD3	; 211
     2f6:	ff 49       	sbci	r31, 0x9F	; 159
     2f8:	90 81       	ld	r25, Z
     2fa:	89 13       	cpse	r24, r25
     2fc:	11 c0       	rjmp	.+34     	; 0x320 <BK280_Data_Read+0x48>
				match_index++;
     2fe:	1f 5f       	subi	r17, 0xFF	; 255
				if (match_index == sizeof(target) - 1) {
     300:	16 30       	cpi	r17, 0x06	; 6
     302:	91 f7       	brne	.-28     	; 0x2e8 <BK280_Data_Read+0x10>
					capturing = true;
					index = 0;
					memcpy(buffer, target, sizeof(target) - 1);
     304:	86 e0       	ldi	r24, 0x06	; 6
     306:	ed e2       	ldi	r30, 0x2D	; 45
     308:	f0 e6       	ldi	r31, 0x60	; 96
     30a:	aa e2       	ldi	r26, 0x2A	; 42
     30c:	b5 e6       	ldi	r27, 0x65	; 101
     30e:	01 90       	ld	r0, Z+
     310:	0d 92       	st	X+, r0
     312:	8a 95       	dec	r24
     314:	e1 f7       	brne	.-8      	; 0x30e <BK280_Data_Read+0x36>
					index = sizeof(target) - 1;
					match_index = 0;
     316:	10 e0       	ldi	r17, 0x00	; 0

		if (!capturing) {
			if (c == target[match_index]) {
				match_index++;
				if (match_index == sizeof(target) - 1) {
					capturing = true;
     318:	01 e0       	ldi	r16, 0x01	; 1
					index = 0;
					memcpy(buffer, target, sizeof(target) - 1);
					index = sizeof(target) - 1;
     31a:	c6 e0       	ldi	r28, 0x06	; 6
     31c:	d0 e0       	ldi	r29, 0x00	; 0
     31e:	e4 cf       	rjmp	.-56     	; 0x2e8 <BK280_Data_Read+0x10>
					match_index = 0;
				}
				} else {
				match_index = 0;
     320:	10 e0       	ldi	r17, 0x00	; 0
			}
			continue;
     322:	e2 cf       	rjmp	.-60     	; 0x2e8 <BK280_Data_Read+0x10>
		}

		// Jeigu jau fiksuojam eilutæ — dedam á buferá
		if (index < NMEA_BUFFER_SIZE - 1)
     324:	cb 33       	cpi	r28, 0x3B	; 59
     326:	d1 05       	cpc	r29, r1
     328:	28 f4       	brcc	.+10     	; 0x334 <BK280_Data_Read+0x5c>
		buffer[index++] = c;
     32a:	fe 01       	movw	r30, r28
     32c:	e6 5d       	subi	r30, 0xD6	; 214
     32e:	fa 49       	sbci	r31, 0x9A	; 154
     330:	80 83       	st	Z, r24
     332:	21 96       	adiw	r28, 0x01	; 1

		// NMEA eilutë baigiasi \r\n
		if (c == '\n' && index >= 2 && buffer[index - 2] == '\r') {
     334:	8a 30       	cpi	r24, 0x0A	; 10
     336:	69 f4       	brne	.+26     	; 0x352 <BK280_Data_Read+0x7a>
     338:	c2 30       	cpi	r28, 0x02	; 2
     33a:	d1 05       	cpc	r29, r1
     33c:	50 f0       	brcs	.+20     	; 0x352 <BK280_Data_Read+0x7a>
     33e:	fe 01       	movw	r30, r28
     340:	e8 5d       	subi	r30, 0xD8	; 216
     342:	fa 49       	sbci	r31, 0x9A	; 154
     344:	80 81       	ld	r24, Z
     346:	8d 30       	cpi	r24, 0x0D	; 13
     348:	21 f4       	brne	.+8      	; 0x352 <BK280_Data_Read+0x7a>
			buffer[index] = '\0';
     34a:	c6 5d       	subi	r28, 0xD6	; 214
     34c:	da 49       	sbci	r29, 0x9A	; 154
     34e:	18 82       	st	Y, r1
			break;
     350:	05 c0       	rjmp	.+10     	; 0x35c <BK280_Data_Read+0x84>
		}

		// Apsauga, jei buferis perpildomas
		if (index >= NMEA_BUFFER_SIZE - 1) {
     352:	cb 33       	cpi	r28, 0x3B	; 59
     354:	d1 05       	cpc	r29, r1
     356:	40 f2       	brcs	.-112    	; 0x2e8 <BK280_Data_Read+0x10>
			buffer[NMEA_BUFFER_SIZE - 1] = '\0';
     358:	10 92 65 65 	sts	0x6565, r1	; 0x806565 <__data_end+0x3b>
			break;
		}
	}
}
     35c:	df 91       	pop	r29
     35e:	cf 91       	pop	r28
     360:	1f 91       	pop	r17
     362:	0f 91       	pop	r16
     364:	08 95       	ret

00000366 <CLOCK_INHF_clock_init>:
	{};
	/* Configuration complete;*/
}

void CLOCK_INHF_clock_init() {
	ccp_write_io((uint8_t *) &CLKCTRL.OSCHFCTRLA, CLKCTRL_FRQSEL_24M_gc); ///< Set oscillator frequency to 24 MHz.
     366:	64 e2       	ldi	r22, 0x24	; 36
     368:	88 e6       	ldi	r24, 0x68	; 104
     36a:	90 e0       	ldi	r25, 0x00	; 0
     36c:	0e 94 e9 09 	call	0x13d2	; 0x13d2 <ccp_write_io>
	// ccp_write_io((uint8_t *) &CLKCTRL.MCLKCTRLB, CLKCTRL_PDIV_2X_gc | CLKCTRL_PEN_bm); ///< Enable clock prescaler if needed (currently not used).
	ccp_write_io((uint8_t *) &CLKCTRL.MCLKCTRLA, CLKCTRL_CLKSEL_OSCHF_gc/* | CLKCTRL_CLKOUT_bm*/); ///< Set the internal 24 MHz oscillator as the main clock source, with optional clock output on PA4.
     370:	60 e0       	ldi	r22, 0x00	; 0
     372:	80 e6       	ldi	r24, 0x60	; 96
     374:	90 e0       	ldi	r25, 0x00	; 0
     376:	0e 94 e9 09 	call	0x13d2	; 0x13d2 <ccp_write_io>
	while (CLKCTRL.MCLKSTATUS & CLKCTRL_SOSC_bm) {}; ///< Wait for oscillator switch to be completed.
     37a:	80 91 65 00 	lds	r24, 0x0065	; 0x800065 <__TEXT_REGION_LENGTH__+0x7f0065>
     37e:	80 fd       	sbrc	r24, 0
     380:	fc cf       	rjmp	.-8      	; 0x37a <CLOCK_INHF_clock_init+0x14>
     382:	08 95       	ret

00000384 <GPIO_init>:

#include "Settings.h"

void GPIO_init(){
    // Configure USART0 and USART1 pin routing
    PORTMUX.USARTROUTEA = PORTMUX_USART1_DEFAULT_gc /*| PORTMUX_USART0_ALT2_gc*/; // Set USART0 to alternative pins set default
     384:	e0 ee       	ldi	r30, 0xE0	; 224
     386:	f5 e0       	ldi	r31, 0x05	; 5
     388:	12 82       	std	Z+2, r1	; 0x02
	PORTMUX.SPIROUTEA = PORTMUX_SPI0_DEFAULT_gc;
     38a:	15 82       	std	Z+5, r1	; 0x05
	
	// PA4=MOSI, PA6=SCK, PA7=CS kaip out
	PORTA.DIRSET = PIN2_bm | PIN3_bm | PIN4_bm | PIN6_bm | PIN7_bm;
     38c:	e0 e0       	ldi	r30, 0x00	; 0
     38e:	f4 e0       	ldi	r31, 0x04	; 4
     390:	8c ed       	ldi	r24, 0xDC	; 220
     392:	81 83       	std	Z+1, r24	; 0x01
	//PD2=DC, PD3=RES
	PORTD.DIRSET = PIN2_bm | PIN3_bm; //screen DC and RES
     394:	a0 e6       	ldi	r26, 0x60	; 96
     396:	b4 e0       	ldi	r27, 0x04	; 4
     398:	8c e0       	ldi	r24, 0x0C	; 12
     39a:	11 96       	adiw	r26, 0x01	; 1
     39c:	8c 93       	st	X, r24
     39e:	11 97       	sbiw	r26, 0x01	; 1

	PORTD.DIRSET = PIN4_bm | PIN7_bm; //USART0 RS485 TX, XDIR 
     3a0:	80 e9       	ldi	r24, 0x90	; 144
     3a2:	11 96       	adiw	r26, 0x01	; 1
     3a4:	8c 93       	st	X, r24
     3a6:	11 97       	sbiw	r26, 0x01	; 1
	PORTD.DIRCLR = PIN5_bm; //USART0 RS485 RX
     3a8:	80 e2       	ldi	r24, 0x20	; 32
     3aa:	12 96       	adiw	r26, 0x02	; 2
     3ac:	8c 93       	st	X, r24
     3ae:	12 97       	sbiw	r26, 0x02	; 2
	PORTD.PIN4CTRL = PORT_PULLUPEN_bm; // Enable pull-up(USART0 RX485 TX)
     3b0:	88 e0       	ldi	r24, 0x08	; 8
     3b2:	54 96       	adiw	r26, 0x14	; 20
     3b4:	8c 93       	st	X, r24
     3b6:	54 97       	sbiw	r26, 0x14	; 20
	PORTD.PIN5CTRL = PORT_PULLUPEN_bm; // Enable pull-up(USART0 RX485 RX)
     3b8:	55 96       	adiw	r26, 0x15	; 21
     3ba:	8c 93       	st	X, r24

	PORTA.DIRSET = PIN2_bm; //USART0 GNSS TX
     3bc:	94 e0       	ldi	r25, 0x04	; 4
     3be:	91 83       	std	Z+1, r25	; 0x01
	PORTA.DIRCLR = PIN3_bm; //USART0 GNSS RX
     3c0:	82 83       	std	Z+2, r24	; 0x02
	PORTA.PIN2CTRL = PORT_PULLUPEN_bm; // Enable pull-up(USART0 GNSS TX)
     3c2:	82 8b       	std	Z+18, r24	; 0x12
	PORTA.PIN3CTRL = PORT_PULLUPEN_bm; // Enable pull-up(USART0 GNSS RX)
     3c4:	83 8b       	std	Z+19, r24	; 0x13


	PORTC.DIRSET = PIN0_bm; //USART1 TX
     3c6:	e0 e4       	ldi	r30, 0x40	; 64
     3c8:	f4 e0       	ldi	r31, 0x04	; 4
     3ca:	91 e0       	ldi	r25, 0x01	; 1
     3cc:	91 83       	std	Z+1, r25	; 0x01
	PORTC.DIRCLR = PIN1_bm; //USART1 RX
     3ce:	92 e0       	ldi	r25, 0x02	; 2
     3d0:	92 83       	std	Z+2, r25	; 0x02
	PORTC.PIN0CTRL = PORT_PULLUPEN_bm; // Enable pull-up(USART1 TX)
     3d2:	80 8b       	std	Z+16, r24	; 0x10
	PORTC.PIN1CTRL = PORT_PULLUPEN_bm; // Enable pull-up(USART1 RX)
     3d4:	81 8b       	std	Z+17, r24	; 0x11
     3d6:	08 95       	ret

000003d8 <main>:
 */ 
#include "Settings.h"

int main()
{
	CLOCK_INHF_clock_init();
     3d8:	0e 94 b3 01 	call	0x366	; 0x366 <CLOCK_INHF_clock_init>
	GPIO_init();
     3dc:	0e 94 c2 01 	call	0x384	; 0x384 <GPIO_init>
	SPI0_init();
     3e0:	0e 94 7e 03 	call	0x6fc	; 0x6fc <SPI0_init>
	USART0_init(GNSS_module);
     3e4:	80 e0       	ldi	r24, 0x00	; 0
     3e6:	0e 94 d8 05 	call	0xbb0	; 0xbb0 <USART0_init>
	USART1_init();
     3ea:	0e 94 59 06 	call	0xcb2	; 0xcb2 <USART1_init>
	lcd_init();
     3ee:	0e 94 d0 03 	call	0x7a0	; 0x7a0 <lcd_init>
	lcd_fill_color(RED);
     3f2:	80 e0       	ldi	r24, 0x00	; 0
     3f4:	98 ef       	ldi	r25, 0xF8	; 248
     3f6:	0e 94 fd 04 	call	0x9fa	; 0x9fa <lcd_fill_color>
	#else
		//round up by default
		__ticks_dc = (uint32_t)(ceil(fabs(__tmp)));
	#endif

	__builtin_avr_delay_cycles(__ticks_dc);
     3fa:	2f ef       	ldi	r18, 0xFF	; 255
     3fc:	3c e2       	ldi	r19, 0x2C	; 44
     3fe:	81 e3       	ldi	r24, 0x31	; 49
     400:	91 e0       	ldi	r25, 0x01	; 1
     402:	21 50       	subi	r18, 0x01	; 1
     404:	30 40       	sbci	r19, 0x00	; 0
     406:	80 40       	sbci	r24, 0x00	; 0
     408:	90 40       	sbci	r25, 0x00	; 0
     40a:	d9 f7       	brne	.-10     	; 0x402 <__LOCK_REGION_LENGTH__+0x2>
     40c:	00 c0       	rjmp	.+0      	; 0x40e <__LOCK_REGION_LENGTH__+0xe>
     40e:	00 00       	nop
	_delay_ms(5000);
	lcd_fill_color(ORANGE);
     410:	80 e2       	ldi	r24, 0x20	; 32
     412:	9d ef       	ldi	r25, 0xFD	; 253
     414:	0e 94 fd 04 	call	0x9fa	; 0x9fa <lcd_fill_color>
     418:	2f ef       	ldi	r18, 0xFF	; 255
     41a:	3c e2       	ldi	r19, 0x2C	; 44
     41c:	81 e3       	ldi	r24, 0x31	; 49
     41e:	91 e0       	ldi	r25, 0x01	; 1
     420:	21 50       	subi	r18, 0x01	; 1
     422:	30 40       	sbci	r19, 0x00	; 0
     424:	80 40       	sbci	r24, 0x00	; 0
     426:	90 40       	sbci	r25, 0x00	; 0
     428:	d9 f7       	brne	.-10     	; 0x420 <__LOCK_REGION_LENGTH__+0x20>
     42a:	00 c0       	rjmp	.+0      	; 0x42c <__LOCK_REGION_LENGTH__+0x2c>
     42c:	00 00       	nop
	_delay_ms(5000);
	lcd_fill_color(YELLOW);
     42e:	80 ee       	ldi	r24, 0xE0	; 224
     430:	9f ef       	ldi	r25, 0xFF	; 255
     432:	0e 94 fd 04 	call	0x9fa	; 0x9fa <lcd_fill_color>
     436:	2f ef       	ldi	r18, 0xFF	; 255
     438:	3c e2       	ldi	r19, 0x2C	; 44
     43a:	81 e3       	ldi	r24, 0x31	; 49
     43c:	91 e0       	ldi	r25, 0x01	; 1
     43e:	21 50       	subi	r18, 0x01	; 1
     440:	30 40       	sbci	r19, 0x00	; 0
     442:	80 40       	sbci	r24, 0x00	; 0
     444:	90 40       	sbci	r25, 0x00	; 0
     446:	d9 f7       	brne	.-10     	; 0x43e <__LOCK_REGION_LENGTH__+0x3e>
     448:	00 c0       	rjmp	.+0      	; 0x44a <__LOCK_REGION_LENGTH__+0x4a>
     44a:	00 00       	nop
	_delay_ms(5000);
	lcd_fill_color(GREEN);
     44c:	80 ee       	ldi	r24, 0xE0	; 224
     44e:	97 e0       	ldi	r25, 0x07	; 7
     450:	0e 94 fd 04 	call	0x9fa	; 0x9fa <lcd_fill_color>
     454:	2f ef       	ldi	r18, 0xFF	; 255
     456:	3c e2       	ldi	r19, 0x2C	; 44
     458:	81 e3       	ldi	r24, 0x31	; 49
     45a:	91 e0       	ldi	r25, 0x01	; 1
     45c:	21 50       	subi	r18, 0x01	; 1
     45e:	30 40       	sbci	r19, 0x00	; 0
     460:	80 40       	sbci	r24, 0x00	; 0
     462:	90 40       	sbci	r25, 0x00	; 0
     464:	d9 f7       	brne	.-10     	; 0x45c <__LOCK_REGION_LENGTH__+0x5c>
     466:	00 c0       	rjmp	.+0      	; 0x468 <__LOCK_REGION_LENGTH__+0x68>
     468:	00 00       	nop
	_delay_ms(5000);
	lcd_fill_color(BLACK);
     46a:	80 e0       	ldi	r24, 0x00	; 0
     46c:	90 e0       	ldi	r25, 0x00	; 0
     46e:	0e 94 fd 04 	call	0x9fa	; 0x9fa <lcd_fill_color>
//USART_printf(1, "ATE0&W\r\n"); //rodo tik ok
// SIM800LUARTReceiver();

//HTTP

USART_printf(1, "AT\r\n");
     472:	04 e3       	ldi	r16, 0x34	; 52
     474:	10 e6       	ldi	r17, 0x60	; 96
     476:	1f 93       	push	r17
     478:	0f 93       	push	r16
     47a:	c1 e0       	ldi	r28, 0x01	; 1
     47c:	cf 93       	push	r28
     47e:	0e 94 89 06 	call	0xd12	; 0xd12 <USART_printf>
     482:	2f e7       	ldi	r18, 0x7F	; 127
     484:	39 ea       	ldi	r19, 0xA9	; 169
     486:	83 e0       	ldi	r24, 0x03	; 3
     488:	21 50       	subi	r18, 0x01	; 1
     48a:	30 40       	sbci	r19, 0x00	; 0
     48c:	80 40       	sbci	r24, 0x00	; 0
     48e:	e1 f7       	brne	.-8      	; 0x488 <__LOCK_REGION_LENGTH__+0x88>
     490:	00 c0       	rjmp	.+0      	; 0x492 <__LOCK_REGION_LENGTH__+0x92>
     492:	00 00       	nop
_delay_ms(50);
USART_printf(1, "AT+SAPBR=3,1,\"CONTYPE\",\"GPRS\"\r\n");
     494:	89 e3       	ldi	r24, 0x39	; 57
     496:	90 e6       	ldi	r25, 0x60	; 96
     498:	9f 93       	push	r25
     49a:	8f 93       	push	r24
     49c:	cf 93       	push	r28
     49e:	0e 94 89 06 	call	0xd12	; 0xd12 <USART_printf>
     4a2:	9f e7       	ldi	r25, 0x7F	; 127
     4a4:	29 ea       	ldi	r18, 0xA9	; 169
     4a6:	33 e0       	ldi	r19, 0x03	; 3
     4a8:	91 50       	subi	r25, 0x01	; 1
     4aa:	20 40       	sbci	r18, 0x00	; 0
     4ac:	30 40       	sbci	r19, 0x00	; 0
     4ae:	e1 f7       	brne	.-8      	; 0x4a8 <__LOCK_REGION_LENGTH__+0xa8>
     4b0:	00 c0       	rjmp	.+0      	; 0x4b2 <__LOCK_REGION_LENGTH__+0xb2>
     4b2:	00 00       	nop
_delay_ms(50);
USART_printf(1, "AT+CSTT=\"internet.tele2.lt\",\"wap\",\"wap\"\r\n");
     4b4:	0f 2e       	mov	r0, r31
     4b6:	f9 e5       	ldi	r31, 0x59	; 89
     4b8:	ef 2e       	mov	r14, r31
     4ba:	f0 e6       	ldi	r31, 0x60	; 96
     4bc:	ff 2e       	mov	r15, r31
     4be:	f0 2d       	mov	r31, r0
     4c0:	ff 92       	push	r15
     4c2:	ef 92       	push	r14
     4c4:	cf 93       	push	r28
     4c6:	0e 94 89 06 	call	0xd12	; 0xd12 <USART_printf>
     4ca:	8f e7       	ldi	r24, 0x7F	; 127
     4cc:	9c ef       	ldi	r25, 0xFC	; 252
     4ce:	2a e0       	ldi	r18, 0x0A	; 10
     4d0:	81 50       	subi	r24, 0x01	; 1
     4d2:	90 40       	sbci	r25, 0x00	; 0
     4d4:	20 40       	sbci	r18, 0x00	; 0
     4d6:	e1 f7       	brne	.-8      	; 0x4d0 <__LOCK_REGION_LENGTH__+0xd0>
     4d8:	00 c0       	rjmp	.+0      	; 0x4da <__LOCK_REGION_LENGTH__+0xda>
     4da:	00 00       	nop
_delay_ms(150);
USART_printf(1, "AT+SAPBR=1,1\r\n");
     4dc:	83 e8       	ldi	r24, 0x83	; 131
     4de:	90 e6       	ldi	r25, 0x60	; 96
     4e0:	9f 93       	push	r25
     4e2:	8f 93       	push	r24
     4e4:	cf 93       	push	r28
     4e6:	0e 94 89 06 	call	0xd12	; 0xd12 <USART_printf>
     4ea:	3f e7       	ldi	r19, 0x7F	; 127
     4ec:	8e ee       	ldi	r24, 0xEE	; 238
     4ee:	96 e3       	ldi	r25, 0x36	; 54
     4f0:	31 50       	subi	r19, 0x01	; 1
     4f2:	80 40       	sbci	r24, 0x00	; 0
     4f4:	90 40       	sbci	r25, 0x00	; 0
     4f6:	e1 f7       	brne	.-8      	; 0x4f0 <__LOCK_REGION_LENGTH__+0xf0>
     4f8:	00 c0       	rjmp	.+0      	; 0x4fa <__LOCK_REGION_LENGTH__+0xfa>
     4fa:	00 00       	nop
_delay_ms(750);
USART_printf(1, "AT+HTTPINIT\r\n");
     4fc:	82 e9       	ldi	r24, 0x92	; 146
     4fe:	90 e6       	ldi	r25, 0x60	; 96
     500:	9f 93       	push	r25
     502:	8f 93       	push	r24
     504:	cf 93       	push	r28
     506:	0e 94 89 06 	call	0xd12	; 0xd12 <USART_printf>
     50a:	2f ef       	ldi	r18, 0xFF	; 255
     50c:	31 e7       	ldi	r19, 0x71	; 113
     50e:	86 e0       	ldi	r24, 0x06	; 6
     510:	21 50       	subi	r18, 0x01	; 1
     512:	30 40       	sbci	r19, 0x00	; 0
     514:	80 40       	sbci	r24, 0x00	; 0
     516:	e1 f7       	brne	.-8      	; 0x510 <__LOCK_REGION_LENGTH__+0x110>
     518:	00 c0       	rjmp	.+0      	; 0x51a <__LOCK_REGION_LENGTH__+0x11a>
     51a:	00 00       	nop
_delay_ms(88);
USART_printf(1, "AT+HTTPPARA=\"CID\",1\r\n");
     51c:	80 ea       	ldi	r24, 0xA0	; 160
     51e:	90 e6       	ldi	r25, 0x60	; 96
     520:	9f 93       	push	r25
     522:	8f 93       	push	r24
     524:	cf 93       	push	r28
     526:	0e 94 89 06 	call	0xd12	; 0xd12 <USART_printf>
     52a:	9f e7       	ldi	r25, 0x7F	; 127
     52c:	29 ea       	ldi	r18, 0xA9	; 169
     52e:	33 e0       	ldi	r19, 0x03	; 3
     530:	91 50       	subi	r25, 0x01	; 1
     532:	20 40       	sbci	r18, 0x00	; 0
     534:	30 40       	sbci	r19, 0x00	; 0
     536:	e1 f7       	brne	.-8      	; 0x530 <__LOCK_REGION_LENGTH__+0x130>
     538:	00 c0       	rjmp	.+0      	; 0x53a <__LOCK_REGION_LENGTH__+0x13a>
     53a:	00 00       	nop
_delay_ms(50);
USART_printf(1, "AT+HTTPPARA=\"URL\",\"http://yoururl.com/index.php?data=[59880E9510A01240A41B108ED29040108F2]\"\r\n");
     53c:	86 eb       	ldi	r24, 0xB6	; 182
     53e:	90 e6       	ldi	r25, 0x60	; 96
     540:	9f 93       	push	r25
     542:	8f 93       	push	r24
     544:	cf 93       	push	r28
     546:	0e 94 89 06 	call	0xd12	; 0xd12 <USART_printf>
     54a:	8f e7       	ldi	r24, 0x7F	; 127
     54c:	99 ea       	ldi	r25, 0xA9	; 169
     54e:	23 e0       	ldi	r18, 0x03	; 3
     550:	81 50       	subi	r24, 0x01	; 1
     552:	90 40       	sbci	r25, 0x00	; 0
     554:	20 40       	sbci	r18, 0x00	; 0
     556:	e1 f7       	brne	.-8      	; 0x550 <__LOCK_REGION_LENGTH__+0x150>
     558:	00 c0       	rjmp	.+0      	; 0x55a <__LOCK_REGION_LENGTH__+0x15a>
     55a:	00 00       	nop
_delay_ms(50);
USART_printf(1, "AT+HTTPACTION=0\r\n");
     55c:	84 e1       	ldi	r24, 0x14	; 20
     55e:	91 e6       	ldi	r25, 0x61	; 97
     560:	9f 93       	push	r25
     562:	8f 93       	push	r24
     564:	cf 93       	push	r28
     566:	0e 94 89 06 	call	0xd12	; 0xd12 <USART_printf>
     56a:	3f eb       	ldi	r19, 0xBF	; 191
     56c:	81 ea       	ldi	r24, 0xA1	; 161
     56e:	91 e6       	ldi	r25, 0x61	; 97
     570:	31 50       	subi	r19, 0x01	; 1
     572:	80 40       	sbci	r24, 0x00	; 0
     574:	90 40       	sbci	r25, 0x00	; 0
     576:	e1 f7       	brne	.-8      	; 0x570 <__LOCK_REGION_LENGTH__+0x170>
     578:	00 c0       	rjmp	.+0      	; 0x57a <__LOCK_REGION_LENGTH__+0x17a>
     57a:	00 00       	nop
_delay_ms(1333);

//TCP

USART_printf(1, "AT\r\n");
     57c:	1f 93       	push	r17
     57e:	0f 93       	push	r16
     580:	cf 93       	push	r28
     582:	0e 94 89 06 	call	0xd12	; 0xd12 <USART_printf>
     586:	2f e7       	ldi	r18, 0x7F	; 127
     588:	39 ea       	ldi	r19, 0xA9	; 169
     58a:	83 e0       	ldi	r24, 0x03	; 3
     58c:	21 50       	subi	r18, 0x01	; 1
     58e:	30 40       	sbci	r19, 0x00	; 0
     590:	80 40       	sbci	r24, 0x00	; 0
     592:	e1 f7       	brne	.-8      	; 0x58c <__LOCK_REGION_LENGTH__+0x18c>
     594:	00 c0       	rjmp	.+0      	; 0x596 <__LOCK_REGION_LENGTH__+0x196>
     596:	00 00       	nop
_delay_ms(50);
USART_printf(1, "AT+CIPSHUT\r\n"); // uþdarom visus ankstesnius ryðius
     598:	06 e2       	ldi	r16, 0x26	; 38
     59a:	11 e6       	ldi	r17, 0x61	; 97
     59c:	1f 93       	push	r17
     59e:	0f 93       	push	r16
     5a0:	cf 93       	push	r28
     5a2:	0e 94 89 06 	call	0xd12	; 0xd12 <USART_printf>
     5a6:	9f ef       	ldi	r25, 0xFF	; 255
     5a8:	28 ef       	ldi	r18, 0xF8	; 248
     5aa:	35 e1       	ldi	r19, 0x15	; 21
     5ac:	91 50       	subi	r25, 0x01	; 1
     5ae:	20 40       	sbci	r18, 0x00	; 0
     5b0:	30 40       	sbci	r19, 0x00	; 0
     5b2:	e1 f7       	brne	.-8      	; 0x5ac <__LOCK_REGION_LENGTH__+0x1ac>
     5b4:	00 c0       	rjmp	.+0      	; 0x5b6 <__LOCK_REGION_LENGTH__+0x1b6>
     5b6:	00 00       	nop
_delay_ms(300);
USART_printf(1, "AT+CIPMUX=0\r\n"); // vienas TCP kanalas
     5b8:	83 e3       	ldi	r24, 0x33	; 51
     5ba:	91 e6       	ldi	r25, 0x61	; 97
     5bc:	9f 93       	push	r25
     5be:	8f 93       	push	r24
     5c0:	cf 93       	push	r28
     5c2:	0e 94 89 06 	call	0xd12	; 0xd12 <USART_printf>
     5c6:	8f e7       	ldi	r24, 0x7F	; 127
     5c8:	99 ea       	ldi	r25, 0xA9	; 169
     5ca:	23 e0       	ldi	r18, 0x03	; 3
     5cc:	81 50       	subi	r24, 0x01	; 1
     5ce:	90 40       	sbci	r25, 0x00	; 0
     5d0:	20 40       	sbci	r18, 0x00	; 0
     5d2:	e1 f7       	brne	.-8      	; 0x5cc <__LOCK_REGION_LENGTH__+0x1cc>
     5d4:	00 c0       	rjmp	.+0      	; 0x5d6 <__LOCK_REGION_LENGTH__+0x1d6>
     5d6:	00 00       	nop
_delay_ms(50);
USART_printf(1, "AT+CSTT=\"internet.tele2.lt\",\"wap\",\"wap\"\r\n"); // APN
     5d8:	8d b7       	in	r24, 0x3d	; 61
     5da:	9e b7       	in	r25, 0x3e	; 62
     5dc:	81 96       	adiw	r24, 0x21	; 33
     5de:	8d bf       	out	0x3d, r24	; 61
     5e0:	9e bf       	out	0x3e, r25	; 62
     5e2:	ff 92       	push	r15
     5e4:	ef 92       	push	r14
     5e6:	cf 93       	push	r28
     5e8:	0e 94 89 06 	call	0xd12	; 0xd12 <USART_printf>
     5ec:	9f ef       	ldi	r25, 0xFF	; 255
     5ee:	25 ea       	ldi	r18, 0xA5	; 165
     5f0:	3e e0       	ldi	r19, 0x0E	; 14
     5f2:	91 50       	subi	r25, 0x01	; 1
     5f4:	20 40       	sbci	r18, 0x00	; 0
     5f6:	30 40       	sbci	r19, 0x00	; 0
     5f8:	e1 f7       	brne	.-8      	; 0x5f2 <__LOCK_REGION_LENGTH__+0x1f2>
     5fa:	00 c0       	rjmp	.+0      	; 0x5fc <__LOCK_REGION_LENGTH__+0x1fc>
     5fc:	00 00       	nop
_delay_ms(200);
USART_printf(1, "AT+CIICR\r\n"); // paleidþiam GPRS
     5fe:	81 e4       	ldi	r24, 0x41	; 65
     600:	91 e6       	ldi	r25, 0x61	; 97
     602:	9f 93       	push	r25
     604:	8f 93       	push	r24
     606:	cf 93       	push	r28
     608:	0e 94 89 06 	call	0xd12	; 0xd12 <USART_printf>
     60c:	8f ef       	ldi	r24, 0xFF	; 255
     60e:	99 eb       	ldi	r25, 0xB9	; 185
     610:	2b ed       	ldi	r18, 0xDB	; 219
     612:	81 50       	subi	r24, 0x01	; 1
     614:	90 40       	sbci	r25, 0x00	; 0
     616:	20 40       	sbci	r18, 0x00	; 0
     618:	e1 f7       	brne	.-8      	; 0x612 <__LOCK_REGION_LENGTH__+0x212>
     61a:	00 c0       	rjmp	.+0      	; 0x61c <__LOCK_REGION_LENGTH__+0x21c>
     61c:	00 00       	nop
_delay_ms(3000);
USART_printf(1, "AT+CIFSR\r\n"); // pasitikrinam IP adresà
     61e:	8c e4       	ldi	r24, 0x4C	; 76
     620:	91 e6       	ldi	r25, 0x61	; 97
     622:	9f 93       	push	r25
     624:	8f 93       	push	r24
     626:	cf 93       	push	r28
     628:	0e 94 89 06 	call	0xd12	; 0xd12 <USART_printf>
     62c:	3f ef       	ldi	r19, 0xFF	; 255
     62e:	85 ea       	ldi	r24, 0xA5	; 165
     630:	9e e0       	ldi	r25, 0x0E	; 14
     632:	31 50       	subi	r19, 0x01	; 1
     634:	80 40       	sbci	r24, 0x00	; 0
     636:	90 40       	sbci	r25, 0x00	; 0
     638:	e1 f7       	brne	.-8      	; 0x632 <__LOCK_REGION_LENGTH__+0x232>
     63a:	00 c0       	rjmp	.+0      	; 0x63c <__LOCK_REGION_LENGTH__+0x23c>
     63c:	00 00       	nop
_delay_ms(200);
USART_printf(1, "AT+CIPSTART=\"TCP\",\"yoururl.com\",80\r\n"); // jungiamës prie serverio
     63e:	87 e5       	ldi	r24, 0x57	; 87
     640:	91 e6       	ldi	r25, 0x61	; 97
     642:	9f 93       	push	r25
     644:	8f 93       	push	r24
     646:	cf 93       	push	r28
     648:	0e 94 89 06 	call	0xd12	; 0xd12 <USART_printf>
     64c:	2f ef       	ldi	r18, 0xFF	; 255
     64e:	3b e7       	ldi	r19, 0x7B	; 123
     650:	82 e9       	ldi	r24, 0x92	; 146
     652:	21 50       	subi	r18, 0x01	; 1
     654:	30 40       	sbci	r19, 0x00	; 0
     656:	80 40       	sbci	r24, 0x00	; 0
     658:	e1 f7       	brne	.-8      	; 0x652 <__LOCK_REGION_LENGTH__+0x252>
     65a:	00 c0       	rjmp	.+0      	; 0x65c <__LOCK_REGION_LENGTH__+0x25c>
     65c:	00 00       	nop
_delay_ms(2000);
USART_printf(1, "AT+CIPSEND\r\n"); // pradësim siøsti duomenis
     65e:	8c e7       	ldi	r24, 0x7C	; 124
     660:	91 e6       	ldi	r25, 0x61	; 97
     662:	9f 93       	push	r25
     664:	8f 93       	push	r24
     666:	cf 93       	push	r28
     668:	0e 94 89 06 	call	0xd12	; 0xd12 <USART_printf>
     66c:	9f ef       	ldi	r25, 0xFF	; 255
     66e:	22 e5       	ldi	r18, 0x52	; 82
     670:	37 e0       	ldi	r19, 0x07	; 7
     672:	91 50       	subi	r25, 0x01	; 1
     674:	20 40       	sbci	r18, 0x00	; 0
     676:	30 40       	sbci	r19, 0x00	; 0
     678:	e1 f7       	brne	.-8      	; 0x672 <__LOCK_REGION_LENGTH__+0x272>
     67a:	00 c0       	rjmp	.+0      	; 0x67c <__LOCK_REGION_LENGTH__+0x27c>
     67c:	00 00       	nop
_delay_ms(100);
// Siunèiam HTTP GET uþklausà (tavo data dalá galima generuoti dinaminiu bûdu)
USART_printf(1,
     67e:	89 e8       	ldi	r24, 0x89	; 137
     680:	91 e6       	ldi	r25, 0x61	; 97
     682:	9f 93       	push	r25
     684:	8f 93       	push	r24
     686:	cf 93       	push	r28
     688:	0e 94 89 06 	call	0xd12	; 0xd12 <USART_printf>
"GET /index.php?data=[59880E9510A01240A41B108ED29040108F2] HTTP/1.1\r\n"
"Host: yoururl.com\r\n"
"Connection: close\r\n\r\n");
// Baigiam siuntimà su CTRL+Z (0x1A)
USART1_sendChar(0x1A);
     68c:	8a e1       	ldi	r24, 0x1A	; 26
     68e:	90 e0       	ldi	r25, 0x00	; 0
     690:	0e 94 64 06 	call	0xcc8	; 0xcc8 <USART1_sendChar>
     694:	8f ef       	ldi	r24, 0xFF	; 255
     696:	9c ed       	ldi	r25, 0xDC	; 220
     698:	2d e6       	ldi	r18, 0x6D	; 109
     69a:	81 50       	subi	r24, 0x01	; 1
     69c:	90 40       	sbci	r25, 0x00	; 0
     69e:	20 40       	sbci	r18, 0x00	; 0
     6a0:	e1 f7       	brne	.-8      	; 0x69a <__LOCK_REGION_LENGTH__+0x29a>
     6a2:	00 c0       	rjmp	.+0      	; 0x6a4 <__LOCK_REGION_LENGTH__+0x2a4>
     6a4:	00 00       	nop
_delay_ms(1500); // palaukiam SEND OK / +IPD atsakymo
USART_printf(1, "AT+CIPCLOSE\r\n"); // uþdarom TCP jungtá
     6a6:	86 ef       	ldi	r24, 0xF6	; 246
     6a8:	91 e6       	ldi	r25, 0x61	; 97
     6aa:	9f 93       	push	r25
     6ac:	8f 93       	push	r24
     6ae:	cf 93       	push	r28
     6b0:	0e 94 89 06 	call	0xd12	; 0xd12 <USART_printf>
     6b4:	3f ef       	ldi	r19, 0xFF	; 255
     6b6:	85 ea       	ldi	r24, 0xA5	; 165
     6b8:	9e e0       	ldi	r25, 0x0E	; 14
     6ba:	31 50       	subi	r19, 0x01	; 1
     6bc:	80 40       	sbci	r24, 0x00	; 0
     6be:	90 40       	sbci	r25, 0x00	; 0
     6c0:	e1 f7       	brne	.-8      	; 0x6ba <__LOCK_REGION_LENGTH__+0x2ba>
     6c2:	00 c0       	rjmp	.+0      	; 0x6c4 <__LOCK_REGION_LENGTH__+0x2c4>
     6c4:	00 00       	nop
_delay_ms(200);
USART_printf(1, "AT+CIPSHUT\r\n"); // iðjungiam GPRS kontekstà
     6c6:	1f 93       	push	r17
     6c8:	0f 93       	push	r16
     6ca:	cf 93       	push	r28
     6cc:	0e 94 89 06 	call	0xd12	; 0xd12 <USART_printf>
     6d0:	2f ef       	ldi	r18, 0xFF	; 255
     6d2:	35 ea       	ldi	r19, 0xA5	; 165
     6d4:	8e e0       	ldi	r24, 0x0E	; 14
     6d6:	21 50       	subi	r18, 0x01	; 1
     6d8:	30 40       	sbci	r19, 0x00	; 0
     6da:	80 40       	sbci	r24, 0x00	; 0
     6dc:	e1 f7       	brne	.-8      	; 0x6d6 <__LOCK_REGION_LENGTH__+0x2d6>
     6de:	00 c0       	rjmp	.+0      	; 0x6e0 <__LOCK_REGION_LENGTH__+0x2e0>
     6e0:	00 00       	nop
     6e2:	2d b7       	in	r18, 0x3d	; 61
     6e4:	3e b7       	in	r19, 0x3e	; 62
     6e6:	28 5e       	subi	r18, 0xE8	; 232
     6e8:	3f 4f       	sbci	r19, 0xFF	; 255
     6ea:	2d bf       	out	0x3d, r18	; 61
     6ec:	3e bf       	out	0x3e, r19	; 62
	{
/*
		USART_printf(1, "ATI\r\n");
		SIM800LUARTReceiver();*/
		
		BK280_Data_Read();
     6ee:	0e 94 6c 01 	call	0x2d8	; 0x2d8 <BK280_Data_Read>
		display_gps_date_and_time(&ALLGNSSDATA);
     6f2:	86 e6       	ldi	r24, 0x66	; 102
     6f4:	95 e6       	ldi	r25, 0x65	; 101
     6f6:	0e 94 22 01 	call	0x244	; 0x244 <display_gps_date_and_time>
     6fa:	f9 cf       	rjmp	.-14     	; 0x6ee <__LOCK_REGION_LENGTH__+0x2ee>

000006fc <SPI0_init>:
    SPI0_Start(); // Pull SS low to initiate communication
    SPI0.DATA = data_storage; // Send the data
    while (!(SPI0.INTFLAGS & SPI_IF_bm)) {} // Wait until data is exchanged
    SPI0_Stop(); // Pull SS high to terminate communication
    return SPI0.DATA; // Return the received data
}
     6fc:	e0 e4       	ldi	r30, 0x40	; 64
     6fe:	f9 e0       	ldi	r31, 0x09	; 9
     700:	81 e3       	ldi	r24, 0x31	; 49
     702:	80 83       	st	Z, r24
     704:	84 e0       	ldi	r24, 0x04	; 4
     706:	81 83       	std	Z+1, r24	; 0x01
     708:	08 95       	ret

0000070a <SPI0_write>:

void SPI0_write(uint8_t data) {
	SPI0.DATA = data;
     70a:	80 93 44 09 	sts	0x0944, r24	; 0x800944 <__TEXT_REGION_LENGTH__+0x7f0944>
	while (!(SPI0.INTFLAGS & SPI_IF_bm));
     70e:	80 91 43 09 	lds	r24, 0x0943	; 0x800943 <__TEXT_REGION_LENGTH__+0x7f0943>
     712:	88 23       	and	r24, r24
     714:	e4 f7       	brge	.-8      	; 0x70e <SPI0_write+0x4>
}
     716:	08 95       	ret

00000718 <SPI0_write_16>:
 *
 * Sends the high byte first, followed by the low byte, using `spi_tft_write()`.
 *
 * @param data 16-bit data to send.
 */
void SPI0_write_16(uint16_t data) {
     718:	cf 93       	push	r28
     71a:	c8 2f       	mov	r28, r24
	 SPI0_write(data >> 8);
     71c:	89 2f       	mov	r24, r25
     71e:	0e 94 85 03 	call	0x70a	; 0x70a <SPI0_write>
	 SPI0_write(data & 0xFF);
     722:	8c 2f       	mov	r24, r28
     724:	0e 94 85 03 	call	0x70a	; 0x70a <SPI0_write>
 }
     728:	cf 91       	pop	r28
     72a:	08 95       	ret

0000072c <lcd_write_cmd>:
#include "Settings.h"
#include "ST7735Var.h"
#include "font5x7.h"

// ---- LCD write helpers ----
void lcd_write_cmd(uint8_t cmd) {
     72c:	1f 93       	push	r17
     72e:	cf 93       	push	r28
     730:	df 93       	push	r29
	DC_LOW();
     732:	94 e0       	ldi	r25, 0x04	; 4
     734:	90 93 66 04 	sts	0x0466, r25	; 0x800466 <__TEXT_REGION_LENGTH__+0x7f0466>
	CS_LOW();
     738:	c0 e0       	ldi	r28, 0x00	; 0
     73a:	d4 e0       	ldi	r29, 0x04	; 4
     73c:	10 e8       	ldi	r17, 0x80	; 128
     73e:	1e 83       	std	Y+6, r17	; 0x06
	SPI0_write(cmd);
     740:	0e 94 85 03 	call	0x70a	; 0x70a <SPI0_write>
	CS_HIGH();
     744:	1d 83       	std	Y+5, r17	; 0x05
}
     746:	df 91       	pop	r29
     748:	cf 91       	pop	r28
     74a:	1f 91       	pop	r17
     74c:	08 95       	ret

0000074e <lcd_write_data>:

void lcd_write_data(uint8_t data) {
     74e:	1f 93       	push	r17
     750:	cf 93       	push	r28
     752:	df 93       	push	r29
	DC_HIGH();
     754:	94 e0       	ldi	r25, 0x04	; 4
     756:	90 93 65 04 	sts	0x0465, r25	; 0x800465 <__TEXT_REGION_LENGTH__+0x7f0465>
	CS_LOW();
     75a:	c0 e0       	ldi	r28, 0x00	; 0
     75c:	d4 e0       	ldi	r29, 0x04	; 4
     75e:	10 e8       	ldi	r17, 0x80	; 128
     760:	1e 83       	std	Y+6, r17	; 0x06
	SPI0_write(data);
     762:	0e 94 85 03 	call	0x70a	; 0x70a <SPI0_write>
	CS_HIGH();
     766:	1d 83       	std	Y+5, r17	; 0x05
}
     768:	df 91       	pop	r29
     76a:	cf 91       	pop	r28
     76c:	1f 91       	pop	r17
     76e:	08 95       	ret

00000770 <reset_display>:

void reset_display() {
	RES_LOW();
     770:	e0 e6       	ldi	r30, 0x60	; 96
     772:	f4 e0       	ldi	r31, 0x04	; 4
     774:	88 e0       	ldi	r24, 0x08	; 8
     776:	86 83       	std	Z+6, r24	; 0x06
     778:	2f ef       	ldi	r18, 0xFF	; 255
     77a:	3d ee       	ldi	r19, 0xED	; 237
     77c:	92 e0       	ldi	r25, 0x02	; 2
     77e:	21 50       	subi	r18, 0x01	; 1
     780:	30 40       	sbci	r19, 0x00	; 0
     782:	90 40       	sbci	r25, 0x00	; 0
     784:	e1 f7       	brne	.-8      	; 0x77e <reset_display+0xe>
     786:	00 c0       	rjmp	.+0      	; 0x788 <reset_display+0x18>
     788:	00 00       	nop
	_delay_ms(40);
	RES_HIGH();
     78a:	85 83       	std	Z+5, r24	; 0x05
     78c:	2f ef       	ldi	r18, 0xFF	; 255
     78e:	35 ea       	ldi	r19, 0xA5	; 165
     790:	8e e0       	ldi	r24, 0x0E	; 14
     792:	21 50       	subi	r18, 0x01	; 1
     794:	30 40       	sbci	r19, 0x00	; 0
     796:	80 40       	sbci	r24, 0x00	; 0
     798:	e1 f7       	brne	.-8      	; 0x792 <reset_display+0x22>
     79a:	00 c0       	rjmp	.+0      	; 0x79c <reset_display+0x2c>
     79c:	00 00       	nop
     79e:	08 95       	ret

000007a0 <lcd_init>:
 *    For ST7735S modules 0x05 is standard for RGB565.
 *  - MADCTL (0x36) controls rotation/flipping and RGB/BGR order. See comment near MADCTL usage.
 */
void lcd_init(void) {
	// Hardware reset: ensure controller starts from known state
	reset_display(); // toggles RES and waits (your reset_display already does delays)
     7a0:	0e 94 b8 03 	call	0x770	; 0x770 <reset_display>

	// 1) Exit sleep mode
	// Command 0x11 (Sleep OUT) wakes the display from sleep.
	// After this command the controller needs time to stabilize before further commands.
	lcd_write_cmd(0x11);
     7a4:	81 e1       	ldi	r24, 0x11	; 17
     7a6:	0e 94 96 03 	call	0x72c	; 0x72c <lcd_write_cmd>
     7aa:	2f ef       	ldi	r18, 0xFF	; 255
     7ac:	89 ec       	ldi	r24, 0xC9	; 201
     7ae:	98 e0       	ldi	r25, 0x08	; 8
     7b0:	21 50       	subi	r18, 0x01	; 1
     7b2:	80 40       	sbci	r24, 0x00	; 0
     7b4:	90 40       	sbci	r25, 0x00	; 0
     7b6:	e1 f7       	brne	.-8      	; 0x7b0 <lcd_init+0x10>
     7b8:	00 c0       	rjmp	.+0      	; 0x7ba <lcd_init+0x1a>
     7ba:	00 00       	nop
	_delay_ms(120); // required wait after sleep out (typical 120ms)

	// 2) Frame rate / display timing setup (B1, B2, B3)
	// These affect the PLL/frame frequency and image flicker/contrast.
	// Values here are common defaults from ST7735S appendix — vendor may tweak.
	lcd_write_cmd(0xB1); // Frame rate control (in normal mode)
     7bc:	81 eb       	ldi	r24, 0xB1	; 177
     7be:	0e 94 96 03 	call	0x72c	; 0x72c <lcd_write_cmd>
	// B1: [osc], [rt], [f] (vendor semantics vary) — typical sequence uses {0x05,0x3C,0x3C}
	lcd_write_data(0x05);
     7c2:	85 e0       	ldi	r24, 0x05	; 5
     7c4:	0e 94 a7 03 	call	0x74e	; 0x74e <lcd_write_data>
	lcd_write_data(0x3C);
     7c8:	8c e3       	ldi	r24, 0x3C	; 60
     7ca:	0e 94 a7 03 	call	0x74e	; 0x74e <lcd_write_data>
	lcd_write_data(0x3C);
     7ce:	8c e3       	ldi	r24, 0x3C	; 60
     7d0:	0e 94 a7 03 	call	0x74e	; 0x74e <lcd_write_data>

	lcd_write_cmd(0xB2); // Frame rate control (in idle mode)
     7d4:	82 eb       	ldi	r24, 0xB2	; 178
     7d6:	0e 94 96 03 	call	0x72c	; 0x72c <lcd_write_cmd>
	lcd_write_data(0x05);
     7da:	85 e0       	ldi	r24, 0x05	; 5
     7dc:	0e 94 a7 03 	call	0x74e	; 0x74e <lcd_write_data>
	lcd_write_data(0x3C);
     7e0:	8c e3       	ldi	r24, 0x3C	; 60
     7e2:	0e 94 a7 03 	call	0x74e	; 0x74e <lcd_write_data>
	lcd_write_data(0x3C);
     7e6:	8c e3       	ldi	r24, 0x3C	; 60
     7e8:	0e 94 a7 03 	call	0x74e	; 0x74e <lcd_write_data>

	lcd_write_cmd(0xB3); // Frame rate control (partial mode, different sequence)
     7ec:	83 eb       	ldi	r24, 0xB3	; 179
     7ee:	0e 94 96 03 	call	0x72c	; 0x72c <lcd_write_cmd>
	// For some controllers B3 has 6 parameters (two triplets for different clocks)
	lcd_write_data(0x05);
     7f2:	85 e0       	ldi	r24, 0x05	; 5
     7f4:	0e 94 a7 03 	call	0x74e	; 0x74e <lcd_write_data>
	lcd_write_data(0x3C);
     7f8:	8c e3       	ldi	r24, 0x3C	; 60
     7fa:	0e 94 a7 03 	call	0x74e	; 0x74e <lcd_write_data>
	lcd_write_data(0x3C);
     7fe:	8c e3       	ldi	r24, 0x3C	; 60
     800:	0e 94 a7 03 	call	0x74e	; 0x74e <lcd_write_data>
	lcd_write_data(0x05);
     804:	85 e0       	ldi	r24, 0x05	; 5
     806:	0e 94 a7 03 	call	0x74e	; 0x74e <lcd_write_data>
	lcd_write_data(0x3C);
     80a:	8c e3       	ldi	r24, 0x3C	; 60
     80c:	0e 94 a7 03 	call	0x74e	; 0x74e <lcd_write_data>
	lcd_write_data(0x3C);
     810:	8c e3       	ldi	r24, 0x3C	; 60
     812:	0e 94 a7 03 	call	0x74e	; 0x74e <lcd_write_data>

	// 3) Inversion control
	// 0xB4 configures display inversion (dot inversion, line inversion, etc.)
	// 0x03 is a commonly used value; other values change inversion scheme.
	lcd_write_cmd(0xB4);
     816:	84 eb       	ldi	r24, 0xB4	; 180
     818:	0e 94 96 03 	call	0x72c	; 0x72c <lcd_write_cmd>
	lcd_write_data(0x03);
     81c:	83 e0       	ldi	r24, 0x03	; 3
     81e:	0e 94 a7 03 	call	0x74e	; 0x74e <lcd_write_data>

	// 4) Power control / voltage settings (C0..C5)
	// These commands set internal voltages (VCI, VGH, VGL, VCOM) used by the panel.
	// Wrong values => poor contrast, unstable image, or no image.
	lcd_write_cmd(0xC0); // Power control 1
     822:	80 ec       	ldi	r24, 0xC0	; 192
     824:	0e 94 96 03 	call	0x72c	; 0x72c <lcd_write_cmd>
	lcd_write_data(0x28);
     828:	88 e2       	ldi	r24, 0x28	; 40
     82a:	0e 94 a7 03 	call	0x74e	; 0x74e <lcd_write_data>
	lcd_write_data(0x08);
     82e:	88 e0       	ldi	r24, 0x08	; 8
     830:	0e 94 a7 03 	call	0x74e	; 0x74e <lcd_write_data>
	lcd_write_data(0x04);
     834:	84 e0       	ldi	r24, 0x04	; 4
     836:	0e 94 a7 03 	call	0x74e	; 0x74e <lcd_write_data>

	lcd_write_cmd(0xC1); // Power control 2
     83a:	81 ec       	ldi	r24, 0xC1	; 193
     83c:	0e 94 96 03 	call	0x72c	; 0x72c <lcd_write_cmd>
	lcd_write_data(0xC0); // often a single parameter
     840:	80 ec       	ldi	r24, 0xC0	; 192
     842:	0e 94 a7 03 	call	0x74e	; 0x74e <lcd_write_data>

	lcd_write_cmd(0xC2); // Power control 3 (sometimes used for injection)
     846:	82 ec       	ldi	r24, 0xC2	; 194
     848:	0e 94 96 03 	call	0x72c	; 0x72c <lcd_write_cmd>
	lcd_write_data(0x0D);
     84c:	8d e0       	ldi	r24, 0x0D	; 13
     84e:	0e 94 a7 03 	call	0x74e	; 0x74e <lcd_write_data>
	lcd_write_data(0x00);
     852:	80 e0       	ldi	r24, 0x00	; 0
     854:	0e 94 a7 03 	call	0x74e	; 0x74e <lcd_write_data>

	lcd_write_cmd(0xC3); // Power control 4 (VGH, VGL adjustments)
     858:	83 ec       	ldi	r24, 0xC3	; 195
     85a:	0e 94 96 03 	call	0x72c	; 0x72c <lcd_write_cmd>
	lcd_write_data(0x8D);
     85e:	8d e8       	ldi	r24, 0x8D	; 141
     860:	0e 94 a7 03 	call	0x74e	; 0x74e <lcd_write_data>
	lcd_write_data(0x2A);
     864:	8a e2       	ldi	r24, 0x2A	; 42
     866:	0e 94 a7 03 	call	0x74e	; 0x74e <lcd_write_data>

	lcd_write_cmd(0xC4); // Power control 5
     86a:	84 ec       	ldi	r24, 0xC4	; 196
     86c:	0e 94 96 03 	call	0x72c	; 0x72c <lcd_write_cmd>
	lcd_write_data(0x8D);
     870:	8d e8       	ldi	r24, 0x8D	; 141
     872:	0e 94 a7 03 	call	0x74e	; 0x74e <lcd_write_data>
	lcd_write_data(0xEE);
     876:	8e ee       	ldi	r24, 0xEE	; 238
     878:	0e 94 a7 03 	call	0x74e	; 0x74e <lcd_write_data>

	lcd_write_cmd(0xC5); // VCOM control (VCOM setting)
     87c:	85 ec       	ldi	r24, 0xC5	; 197
     87e:	0e 94 96 03 	call	0x72c	; 0x72c <lcd_write_cmd>
	lcd_write_data(0x1A); // tweak this if contrast/VCOM artifacts appear
     882:	8a e1       	ldi	r24, 0x1A	; 26
     884:	0e 94 a7 03 	call	0x74e	; 0x74e <lcd_write_data>
	//  - 0x08 => BGR order (if your colors are swapped, set this)
	//  - 0x60 => MX+MV (rotate 90)
	//  - 0xA0 => MY+MV (rotate other directions)
	//
	// Choose based on how your module is mounted. If colors look swapped R<->B, flip the RGB bit.
	lcd_write_cmd(0x36);
     888:	86 e3       	ldi	r24, 0x36	; 54
     88a:	0e 94 96 03 	call	0x72c	; 0x72c <lcd_write_cmd>
	lcd_write_data(0xC0); // Normal orientation, RGB ordering
     88e:	80 ec       	ldi	r24, 0xC0	; 192
     890:	0e 94 a7 03 	call	0x74e	; 0x74e <lcd_write_data>
	//  - 0x04 = 16-bit/pixel (sometimes vendor-specific)
	//  - 0x05 = 16-bit/pixel (RGB565)   <- most common for ST7735S
	//  - 0x06 = 18-bit/pixel (6-6-6)
	//
	// Use 0x05 for 16-bit RGB565 (your write_data16 expects this).
	lcd_write_cmd(0x3A);
     894:	8a e3       	ldi	r24, 0x3A	; 58
     896:	0e 94 96 03 	call	0x72c	; 0x72c <lcd_write_cmd>
	lcd_write_data(0x05);
     89a:	85 e0       	ldi	r24, 0x05	; 5
     89c:	0e 94 a7 03 	call	0x74e	; 0x74e <lcd_write_data>

	// 7) Gamma correction (E0/E1)
	// Gamma curves affect color balance and contrast. The sequences are long arrays.
	// If colors/contrast look off, try alternate gamma tables from datasheet.
	// Here we use a common pair (you can paste the full arrays from the datasheet / appendix).
	lcd_write_cmd(0xE0); // Positive gamma correction
     8a0:	80 ee       	ldi	r24, 0xE0	; 224
     8a2:	0e 94 96 03 	call	0x72c	; 0x72c <lcd_write_cmd>
	// Example small set (datasheet usually gives 16 bytes). Replace with full table if needed:
	lcd_write_data(0x04);
     8a6:	84 e0       	ldi	r24, 0x04	; 4
     8a8:	0e 94 a7 03 	call	0x74e	; 0x74e <lcd_write_data>
	lcd_write_data(0x22);
     8ac:	82 e2       	ldi	r24, 0x22	; 34
     8ae:	0e 94 a7 03 	call	0x74e	; 0x74e <lcd_write_data>
	lcd_write_data(0x07);
     8b2:	87 e0       	ldi	r24, 0x07	; 7
     8b4:	0e 94 a7 03 	call	0x74e	; 0x74e <lcd_write_data>
	lcd_write_data(0x0A);
     8b8:	8a e0       	ldi	r24, 0x0A	; 10
     8ba:	0e 94 a7 03 	call	0x74e	; 0x74e <lcd_write_data>
	lcd_write_data(0x2E);
     8be:	8e e2       	ldi	r24, 0x2E	; 46
     8c0:	0e 94 a7 03 	call	0x74e	; 0x74e <lcd_write_data>
	lcd_write_data(0x30);
     8c4:	80 e3       	ldi	r24, 0x30	; 48
     8c6:	0e 94 a7 03 	call	0x74e	; 0x74e <lcd_write_data>
	lcd_write_data(0x25);
     8ca:	85 e2       	ldi	r24, 0x25	; 37
     8cc:	0e 94 a7 03 	call	0x74e	; 0x74e <lcd_write_data>
	lcd_write_data(0x2A);
     8d0:	8a e2       	ldi	r24, 0x2A	; 42
     8d2:	0e 94 a7 03 	call	0x74e	; 0x74e <lcd_write_data>
	lcd_write_data(0x28);
     8d6:	88 e2       	ldi	r24, 0x28	; 40
     8d8:	0e 94 a7 03 	call	0x74e	; 0x74e <lcd_write_data>
	lcd_write_data(0x26);
     8dc:	86 e2       	ldi	r24, 0x26	; 38
     8de:	0e 94 a7 03 	call	0x74e	; 0x74e <lcd_write_data>
	lcd_write_data(0x2E);
     8e2:	8e e2       	ldi	r24, 0x2E	; 46
     8e4:	0e 94 a7 03 	call	0x74e	; 0x74e <lcd_write_data>
	lcd_write_data(0x3A);
     8e8:	8a e3       	ldi	r24, 0x3A	; 58
     8ea:	0e 94 a7 03 	call	0x74e	; 0x74e <lcd_write_data>
	lcd_write_data(0x00);
     8ee:	80 e0       	ldi	r24, 0x00	; 0
     8f0:	0e 94 a7 03 	call	0x74e	; 0x74e <lcd_write_data>
	lcd_write_data(0x01);
     8f4:	81 e0       	ldi	r24, 0x01	; 1
     8f6:	0e 94 a7 03 	call	0x74e	; 0x74e <lcd_write_data>
	lcd_write_data(0x03);
     8fa:	83 e0       	ldi	r24, 0x03	; 3
     8fc:	0e 94 a7 03 	call	0x74e	; 0x74e <lcd_write_data>
	lcd_write_data(0x13);
     900:	83 e1       	ldi	r24, 0x13	; 19
     902:	0e 94 a7 03 	call	0x74e	; 0x74e <lcd_write_data>

	lcd_write_cmd(0xE1); // Negative gamma correction
     906:	81 ee       	ldi	r24, 0xE1	; 225
     908:	0e 94 96 03 	call	0x72c	; 0x72c <lcd_write_cmd>
	lcd_write_data(0x04);
     90c:	84 e0       	ldi	r24, 0x04	; 4
     90e:	0e 94 a7 03 	call	0x74e	; 0x74e <lcd_write_data>
	lcd_write_data(0x16);
     912:	86 e1       	ldi	r24, 0x16	; 22
     914:	0e 94 a7 03 	call	0x74e	; 0x74e <lcd_write_data>
	lcd_write_data(0x06);
     918:	86 e0       	ldi	r24, 0x06	; 6
     91a:	0e 94 a7 03 	call	0x74e	; 0x74e <lcd_write_data>
	lcd_write_data(0x0D);
     91e:	8d e0       	ldi	r24, 0x0D	; 13
     920:	0e 94 a7 03 	call	0x74e	; 0x74e <lcd_write_data>
	lcd_write_data(0x2D);
     924:	8d e2       	ldi	r24, 0x2D	; 45
     926:	0e 94 a7 03 	call	0x74e	; 0x74e <lcd_write_data>
	lcd_write_data(0x26);
     92a:	86 e2       	ldi	r24, 0x26	; 38
     92c:	0e 94 a7 03 	call	0x74e	; 0x74e <lcd_write_data>
	lcd_write_data(0x23);
     930:	83 e2       	ldi	r24, 0x23	; 35
     932:	0e 94 a7 03 	call	0x74e	; 0x74e <lcd_write_data>
	lcd_write_data(0x27);
     936:	87 e2       	ldi	r24, 0x27	; 39
     938:	0e 94 a7 03 	call	0x74e	; 0x74e <lcd_write_data>
	lcd_write_data(0x27);
     93c:	87 e2       	ldi	r24, 0x27	; 39
     93e:	0e 94 a7 03 	call	0x74e	; 0x74e <lcd_write_data>
	lcd_write_data(0x25);
     942:	85 e2       	ldi	r24, 0x25	; 37
     944:	0e 94 a7 03 	call	0x74e	; 0x74e <lcd_write_data>
	lcd_write_data(0x2D);
     948:	8d e2       	ldi	r24, 0x2D	; 45
     94a:	0e 94 a7 03 	call	0x74e	; 0x74e <lcd_write_data>
	lcd_write_data(0x3B);
     94e:	8b e3       	ldi	r24, 0x3B	; 59
     950:	0e 94 a7 03 	call	0x74e	; 0x74e <lcd_write_data>
	lcd_write_data(0x00);
     954:	80 e0       	ldi	r24, 0x00	; 0
     956:	0e 94 a7 03 	call	0x74e	; 0x74e <lcd_write_data>
	lcd_write_data(0x01);
     95a:	81 e0       	ldi	r24, 0x01	; 1
     95c:	0e 94 a7 03 	call	0x74e	; 0x74e <lcd_write_data>
	lcd_write_data(0x04);
     960:	84 e0       	ldi	r24, 0x04	; 4
     962:	0e 94 a7 03 	call	0x74e	; 0x74e <lcd_write_data>
	lcd_write_data(0x13);
     966:	83 e1       	ldi	r24, 0x13	; 19
     968:	0e 94 a7 03 	call	0x74e	; 0x74e <lcd_write_data>
	// doesn't start at 0,0 in panel memory (common offsets: 0 or a few pixels).
	// If your drawing is shifted, adjust offsets here (0x2A and 0x2B).
	// Typical for 128x160 there's no offset, so we skip a forced CASET/RASET here.

	// 9) Finally, turn display ON
	lcd_write_cmd(0x29); // Display ON
     96c:	89 e2       	ldi	r24, 0x29	; 41
     96e:	0e 94 96 03 	call	0x72c	; 0x72c <lcd_write_cmd>
     972:	2f ef       	ldi	r18, 0xFF	; 255
     974:	86 e7       	ldi	r24, 0x76	; 118
     976:	91 e0       	ldi	r25, 0x01	; 1
     978:	21 50       	subi	r18, 0x01	; 1
     97a:	80 40       	sbci	r24, 0x00	; 0
     97c:	90 40       	sbci	r25, 0x00	; 0
     97e:	e1 f7       	brne	.-8      	; 0x978 <lcd_init+0x1d8>
     980:	00 c0       	rjmp	.+0      	; 0x982 <lcd_init+0x1e2>
     982:	00 00       	nop
     984:	08 95       	ret

00000986 <lcd_set_address>:
}



// ---- Helper spalvai uþpildyti visà ekranà ----
void lcd_set_address(uint16_t x0, uint16_t y0, uint16_t x1, uint16_t y1) {
     986:	cf 92       	push	r12
     988:	df 92       	push	r13
     98a:	ef 92       	push	r14
     98c:	ff 92       	push	r15
     98e:	0f 93       	push	r16
     990:	1f 93       	push	r17
     992:	cf 93       	push	r28
     994:	df 93       	push	r29
     996:	d8 2e       	mov	r13, r24
     998:	c9 2e       	mov	r12, r25
     99a:	16 2f       	mov	r17, r22
     99c:	07 2f       	mov	r16, r23
     99e:	f4 2e       	mov	r15, r20
     9a0:	e5 2e       	mov	r14, r21
     9a2:	c2 2f       	mov	r28, r18
     9a4:	d3 2f       	mov	r29, r19
	lcd_write_cmd(0x2A); // CASET
     9a6:	8a e2       	ldi	r24, 0x2A	; 42
     9a8:	0e 94 96 03 	call	0x72c	; 0x72c <lcd_write_cmd>
	lcd_write_data(x0 >> 8); lcd_write_data(x0 & 0xFF);
     9ac:	8c 2d       	mov	r24, r12
     9ae:	0e 94 a7 03 	call	0x74e	; 0x74e <lcd_write_data>
     9b2:	8d 2d       	mov	r24, r13
     9b4:	0e 94 a7 03 	call	0x74e	; 0x74e <lcd_write_data>
	lcd_write_data(x1 >> 8); lcd_write_data(x1 & 0xFF);
     9b8:	8e 2d       	mov	r24, r14
     9ba:	0e 94 a7 03 	call	0x74e	; 0x74e <lcd_write_data>
     9be:	8f 2d       	mov	r24, r15
     9c0:	0e 94 a7 03 	call	0x74e	; 0x74e <lcd_write_data>

	lcd_write_cmd(0x2B); // RASET
     9c4:	8b e2       	ldi	r24, 0x2B	; 43
     9c6:	0e 94 96 03 	call	0x72c	; 0x72c <lcd_write_cmd>
	lcd_write_data(y0 >> 8); lcd_write_data(y0 & 0xFF);
     9ca:	80 2f       	mov	r24, r16
     9cc:	0e 94 a7 03 	call	0x74e	; 0x74e <lcd_write_data>
     9d0:	81 2f       	mov	r24, r17
     9d2:	0e 94 a7 03 	call	0x74e	; 0x74e <lcd_write_data>
	lcd_write_data(y1 >> 8); lcd_write_data(y1 & 0xFF);
     9d6:	8d 2f       	mov	r24, r29
     9d8:	0e 94 a7 03 	call	0x74e	; 0x74e <lcd_write_data>
     9dc:	8c 2f       	mov	r24, r28
     9de:	0e 94 a7 03 	call	0x74e	; 0x74e <lcd_write_data>

	lcd_write_cmd(0x2C); // RAMWR
     9e2:	8c e2       	ldi	r24, 0x2C	; 44
     9e4:	0e 94 96 03 	call	0x72c	; 0x72c <lcd_write_cmd>
}
     9e8:	df 91       	pop	r29
     9ea:	cf 91       	pop	r28
     9ec:	1f 91       	pop	r17
     9ee:	0f 91       	pop	r16
     9f0:	ff 90       	pop	r15
     9f2:	ef 90       	pop	r14
     9f4:	df 90       	pop	r13
     9f6:	cf 90       	pop	r12
     9f8:	08 95       	ret

000009fa <lcd_fill_color>:


void lcd_fill_color(uint16_t color) {
     9fa:	cf 92       	push	r12
     9fc:	df 92       	push	r13
     9fe:	ef 92       	push	r14
     a00:	ff 92       	push	r15
     a02:	cf 93       	push	r28
     a04:	df 93       	push	r29
     a06:	ec 01       	movw	r28, r24
	uint32_t pixels = ST7735_WIDTH * ST7735_HEIGHT; // viso pikseliø
	lcd_set_address(0, 0, ST7735_WIDTH -1, ST7735_HEIGHT -1);
     a08:	2f e9       	ldi	r18, 0x9F	; 159
     a0a:	30 e0       	ldi	r19, 0x00	; 0
     a0c:	4f e7       	ldi	r20, 0x7F	; 127
     a0e:	50 e0       	ldi	r21, 0x00	; 0
     a10:	60 e0       	ldi	r22, 0x00	; 0
     a12:	70 e0       	ldi	r23, 0x00	; 0
     a14:	80 e0       	ldi	r24, 0x00	; 0
     a16:	90 e0       	ldi	r25, 0x00	; 0
     a18:	0e 94 c3 04 	call	0x986	; 0x986 <lcd_set_address>
	DC_HIGH();
     a1c:	84 e0       	ldi	r24, 0x04	; 4
     a1e:	80 93 65 04 	sts	0x0465, r24	; 0x800465 <__TEXT_REGION_LENGTH__+0x7f0465>
	CS_LOW();
     a22:	80 e8       	ldi	r24, 0x80	; 128
     a24:	80 93 06 04 	sts	0x0406, r24	; 0x800406 <__TEXT_REGION_LENGTH__+0x7f0406>
	for (uint32_t i = 0; i < pixels; i++) {
     a28:	c1 2c       	mov	r12, r1
     a2a:	d1 2c       	mov	r13, r1
     a2c:	76 01       	movw	r14, r12
     a2e:	08 c0       	rjmp	.+16     	; 0xa40 <lcd_fill_color+0x46>
		SPI0_write_16(color);
     a30:	ce 01       	movw	r24, r28
     a32:	0e 94 8c 03 	call	0x718	; 0x718 <SPI0_write_16>
void lcd_fill_color(uint16_t color) {
	uint32_t pixels = ST7735_WIDTH * ST7735_HEIGHT; // viso pikseliø
	lcd_set_address(0, 0, ST7735_WIDTH -1, ST7735_HEIGHT -1);
	DC_HIGH();
	CS_LOW();
	for (uint32_t i = 0; i < pixels; i++) {
     a36:	8f ef       	ldi	r24, 0xFF	; 255
     a38:	c8 1a       	sub	r12, r24
     a3a:	d8 0a       	sbc	r13, r24
     a3c:	e8 0a       	sbc	r14, r24
     a3e:	f8 0a       	sbc	r15, r24
     a40:	c1 14       	cp	r12, r1
     a42:	80 e5       	ldi	r24, 0x50	; 80
     a44:	d8 06       	cpc	r13, r24
     a46:	e1 04       	cpc	r14, r1
     a48:	f1 04       	cpc	r15, r1
     a4a:	90 f3       	brcs	.-28     	; 0xa30 <lcd_fill_color+0x36>
		SPI0_write_16(color);
	}
	CS_HIGH();
     a4c:	80 e8       	ldi	r24, 0x80	; 128
     a4e:	80 93 05 04 	sts	0x0405, r24	; 0x800405 <__TEXT_REGION_LENGTH__+0x7f0405>
}
     a52:	df 91       	pop	r29
     a54:	cf 91       	pop	r28
     a56:	ff 90       	pop	r15
     a58:	ef 90       	pop	r14
     a5a:	df 90       	pop	r13
     a5c:	cf 90       	pop	r12
     a5e:	08 95       	ret

00000a60 <st7735_draw_pixel>:
 * 
 * @param x X coordinate (0..ST7735_WIDTH-1).
 * @param y Y coordinate (0..ST7735_HEIGHT-1).
 * @param color 16-bit RGB565 color.
 */
void st7735_draw_pixel(uint16_t x, uint16_t y, uint16_t color) {
     a60:	ef 92       	push	r14
     a62:	ff 92       	push	r15
     a64:	1f 93       	push	r17
     a66:	cf 93       	push	r28
     a68:	df 93       	push	r29
	if (x >= ST7735_WIDTH || y >= ST7735_HEIGHT) return;
     a6a:	80 38       	cpi	r24, 0x80	; 128
     a6c:	91 05       	cpc	r25, r1
     a6e:	98 f4       	brcc	.+38     	; 0xa96 <st7735_draw_pixel+0x36>
     a70:	60 3a       	cpi	r22, 0xA0	; 160
     a72:	71 05       	cpc	r23, r1
     a74:	80 f4       	brcc	.+32     	; 0xa96 <st7735_draw_pixel+0x36>
     a76:	7a 01       	movw	r14, r20
	lcd_set_address(x, y, x, y);
     a78:	9b 01       	movw	r18, r22
     a7a:	ac 01       	movw	r20, r24
     a7c:	0e 94 c3 04 	call	0x986	; 0x986 <lcd_set_address>
	DC_HIGH();    // Ájungiam „data“ reþimà
     a80:	84 e0       	ldi	r24, 0x04	; 4
     a82:	80 93 65 04 	sts	0x0465, r24	; 0x800465 <__TEXT_REGION_LENGTH__+0x7f0465>
	CS_LOW();     // Aktyvuojam LCD
     a86:	c0 e0       	ldi	r28, 0x00	; 0
     a88:	d4 e0       	ldi	r29, 0x04	; 4
     a8a:	10 e8       	ldi	r17, 0x80	; 128
     a8c:	1e 83       	std	Y+6, r17	; 0x06
	SPI0_write_16(color);
     a8e:	c7 01       	movw	r24, r14
     a90:	0e 94 8c 03 	call	0x718	; 0x718 <SPI0_write_16>
	CS_HIGH();    // Iðjungiam LCD
     a94:	1d 83       	std	Y+5, r17	; 0x05
}
     a96:	df 91       	pop	r29
     a98:	cf 91       	pop	r28
     a9a:	1f 91       	pop	r17
     a9c:	ff 90       	pop	r15
     a9e:	ef 90       	pop	r14
     aa0:	08 95       	ret

00000aa2 <st7735_draw_char>:
 * @param c Character to draw.
 * @param fg Foreground color (RGB565).
 * @param bg Background color (RGB565).
 */

void st7735_draw_char(int x, int y, char c, uint16_t fg, uint16_t bg) {
     aa2:	5f 92       	push	r5
     aa4:	6f 92       	push	r6
     aa6:	7f 92       	push	r7
     aa8:	8f 92       	push	r8
     aaa:	9f 92       	push	r9
     aac:	af 92       	push	r10
     aae:	bf 92       	push	r11
     ab0:	cf 92       	push	r12
     ab2:	df 92       	push	r13
     ab4:	ef 92       	push	r14
     ab6:	ff 92       	push	r15
     ab8:	0f 93       	push	r16
     aba:	1f 93       	push	r17
     abc:	cf 93       	push	r28
     abe:	df 93       	push	r29
     ac0:	5c 01       	movw	r10, r24
     ac2:	4b 01       	movw	r8, r22
     ac4:	e2 2e       	mov	r14, r18
     ac6:	53 2e       	mov	r5, r19
	if (c < 32 || c > 127) c = '?';
     ac8:	80 ee       	ldi	r24, 0xE0	; 224
     aca:	84 0f       	add	r24, r20
     acc:	80 36       	cpi	r24, 0x60	; 96
     ace:	08 f0       	brcs	.+2      	; 0xad2 <st7735_draw_char+0x30>
     ad0:	4f e3       	ldi	r20, 0x3F	; 63
	const uint8_t *chr_data = font5x7[c - 32];
     ad2:	50 e0       	ldi	r21, 0x00	; 0
     ad4:	40 52       	subi	r20, 0x20	; 32
     ad6:	51 09       	sbc	r21, r1
     ad8:	3a 01       	movw	r6, r20
     ada:	66 0c       	add	r6, r6
     adc:	77 1c       	adc	r7, r7
     ade:	66 0c       	add	r6, r6
     ae0:	77 1c       	adc	r7, r7
     ae2:	46 0d       	add	r20, r6
     ae4:	57 1d       	adc	r21, r7
     ae6:	ca 01       	movw	r24, r20
     ae8:	8c 5f       	subi	r24, 0xFC	; 252
     aea:	9d 49       	sbci	r25, 0x9D	; 157
     aec:	3c 01       	movw	r6, r24
	for (int i = 0; i < 5; i++) { // plotis
     aee:	c1 2c       	mov	r12, r1
     af0:	d1 2c       	mov	r13, r1
     af2:	1e c0       	rjmp	.+60     	; 0xb30 <st7735_draw_char+0x8e>
		uint8_t line = chr_data[i];
     af4:	f3 01       	movw	r30, r6
     af6:	ec 0d       	add	r30, r12
     af8:	fd 1d       	adc	r31, r13
     afa:	f0 80       	ld	r15, Z
		for (int j = 0; j < 7; j++) { // aukðtis
     afc:	c0 e0       	ldi	r28, 0x00	; 0
     afe:	d0 e0       	ldi	r29, 0x00	; 0
     b00:	11 c0       	rjmp	.+34     	; 0xb24 <st7735_draw_char+0x82>
			uint16_t color = (line & 0x01) ? fg : bg;
     b02:	f0 fe       	sbrs	r15, 0
     b04:	03 c0       	rjmp	.+6      	; 0xb0c <st7735_draw_char+0x6a>
     b06:	4e 2d       	mov	r20, r14
     b08:	55 2d       	mov	r21, r5
     b0a:	02 c0       	rjmp	.+4      	; 0xb10 <st7735_draw_char+0x6e>
     b0c:	40 2f       	mov	r20, r16
     b0e:	51 2f       	mov	r21, r17
			st7735_draw_pixel(x + i, y + j, color);
     b10:	be 01       	movw	r22, r28
     b12:	68 0d       	add	r22, r8
     b14:	79 1d       	adc	r23, r9
     b16:	c6 01       	movw	r24, r12
     b18:	8a 0d       	add	r24, r10
     b1a:	9b 1d       	adc	r25, r11
     b1c:	0e 94 30 05 	call	0xa60	; 0xa60 <st7735_draw_pixel>
			line >>= 1;
     b20:	f6 94       	lsr	r15
void st7735_draw_char(int x, int y, char c, uint16_t fg, uint16_t bg) {
	if (c < 32 || c > 127) c = '?';
	const uint8_t *chr_data = font5x7[c - 32];
	for (int i = 0; i < 5; i++) { // plotis
		uint8_t line = chr_data[i];
		for (int j = 0; j < 7; j++) { // aukðtis
     b22:	21 96       	adiw	r28, 0x01	; 1
     b24:	c7 30       	cpi	r28, 0x07	; 7
     b26:	d1 05       	cpc	r29, r1
     b28:	64 f3       	brlt	.-40     	; 0xb02 <st7735_draw_char+0x60>
 */

void st7735_draw_char(int x, int y, char c, uint16_t fg, uint16_t bg) {
	if (c < 32 || c > 127) c = '?';
	const uint8_t *chr_data = font5x7[c - 32];
	for (int i = 0; i < 5; i++) { // plotis
     b2a:	9f ef       	ldi	r25, 0xFF	; 255
     b2c:	c9 1a       	sub	r12, r25
     b2e:	d9 0a       	sbc	r13, r25
     b30:	85 e0       	ldi	r24, 0x05	; 5
     b32:	c8 16       	cp	r12, r24
     b34:	d1 04       	cpc	r13, r1
     b36:	f4 f2       	brlt	.-68     	; 0xaf4 <st7735_draw_char+0x52>
			uint16_t color = (line & 0x01) ? fg : bg;
			st7735_draw_pixel(x + i, y + j, color);
			line >>= 1;
		}
	}
}
     b38:	df 91       	pop	r29
     b3a:	cf 91       	pop	r28
     b3c:	1f 91       	pop	r17
     b3e:	0f 91       	pop	r16
     b40:	ff 90       	pop	r15
     b42:	ef 90       	pop	r14
     b44:	df 90       	pop	r13
     b46:	cf 90       	pop	r12
     b48:	bf 90       	pop	r11
     b4a:	af 90       	pop	r10
     b4c:	9f 90       	pop	r9
     b4e:	8f 90       	pop	r8
     b50:	7f 90       	pop	r7
     b52:	6f 90       	pop	r6
     b54:	5f 90       	pop	r5
     b56:	08 95       	ret

00000b58 <st7735_draw_text>:
 * @param y Starting Y coordinate.
 * @param str Null-terminated string to draw.
 * @param fg Foreground color (RGB565).
 * @param bg Background color (RGB565).
 */
void st7735_draw_text(int x, int y, const char *str, uint16_t fg, uint16_t bg) {
     b58:	8f 92       	push	r8
     b5a:	9f 92       	push	r9
     b5c:	af 92       	push	r10
     b5e:	bf 92       	push	r11
     b60:	cf 92       	push	r12
     b62:	df 92       	push	r13
     b64:	ef 92       	push	r14
     b66:	ff 92       	push	r15
     b68:	0f 93       	push	r16
     b6a:	1f 93       	push	r17
     b6c:	cf 93       	push	r28
     b6e:	df 93       	push	r29
     b70:	7c 01       	movw	r14, r24
     b72:	4b 01       	movw	r8, r22
     b74:	ea 01       	movw	r28, r20
     b76:	59 01       	movw	r10, r18
     b78:	68 01       	movw	r12, r16
	while (*str) {
     b7a:	0a c0       	rjmp	.+20     	; 0xb90 <st7735_draw_text+0x38>
		st7735_draw_char(x, y, *str++, fg, bg);
     b7c:	21 96       	adiw	r28, 0x01	; 1
     b7e:	86 01       	movw	r16, r12
     b80:	95 01       	movw	r18, r10
     b82:	b4 01       	movw	r22, r8
     b84:	c7 01       	movw	r24, r14
     b86:	0e 94 51 05 	call	0xaa2	; 0xaa2 <st7735_draw_char>
		x += 6; // Character width + spacing
     b8a:	86 e0       	ldi	r24, 0x06	; 6
     b8c:	e8 0e       	add	r14, r24
     b8e:	f1 1c       	adc	r15, r1
 * @param str Null-terminated string to draw.
 * @param fg Foreground color (RGB565).
 * @param bg Background color (RGB565).
 */
void st7735_draw_text(int x, int y, const char *str, uint16_t fg, uint16_t bg) {
	while (*str) {
     b90:	48 81       	ld	r20, Y
     b92:	41 11       	cpse	r20, r1
     b94:	f3 cf       	rjmp	.-26     	; 0xb7c <st7735_draw_text+0x24>
		st7735_draw_char(x, y, *str++, fg, bg);
		x += 6; // Character width + spacing
	}
}
     b96:	df 91       	pop	r29
     b98:	cf 91       	pop	r28
     b9a:	1f 91       	pop	r17
     b9c:	0f 91       	pop	r16
     b9e:	ff 90       	pop	r15
     ba0:	ef 90       	pop	r14
     ba2:	df 90       	pop	r13
     ba4:	cf 90       	pop	r12
     ba6:	bf 90       	pop	r11
     ba8:	af 90       	pop	r10
     baa:	9f 90       	pop	r9
     bac:	8f 90       	pop	r8
     bae:	08 95       	ret

00000bb0 <USART0_init>:
			SIM800L.lost_signal_fault = true;
			break; //just exit from this while cycle
		}
	}
	return USART1.RXDATAL; // Return received character
}
     bb0:	90 91 e2 05 	lds	r25, 0x05E2	; 0x8005e2 <__TEXT_REGION_LENGTH__+0x7f05e2>
     bb4:	98 7f       	andi	r25, 0xF8	; 248
     bb6:	88 23       	and	r24, r24
     bb8:	11 f0       	breq	.+4      	; 0xbbe <USART0_init+0xe>
     bba:	23 e0       	ldi	r18, 0x03	; 3
     bbc:	01 c0       	rjmp	.+2      	; 0xbc0 <USART0_init+0x10>
     bbe:	22 e0       	ldi	r18, 0x02	; 2
     bc0:	92 2b       	or	r25, r18
     bc2:	90 93 e2 05 	sts	0x05E2, r25	; 0x8005e2 <__TEXT_REGION_LENGTH__+0x7f05e2>
     bc6:	88 23       	and	r24, r24
     bc8:	19 f0       	breq	.+6      	; 0xbd0 <USART0_init+0x20>
     bca:	23 e8       	ldi	r18, 0x83	; 131
     bcc:	36 e0       	ldi	r19, 0x06	; 6
     bce:	02 c0       	rjmp	.+4      	; 0xbd4 <USART0_init+0x24>
     bd0:	28 e8       	ldi	r18, 0x88	; 136
     bd2:	33 e1       	ldi	r19, 0x13	; 19
     bd4:	20 93 08 08 	sts	0x0808, r18	; 0x800808 <__TEXT_REGION_LENGTH__+0x7f0808>
     bd8:	30 93 09 08 	sts	0x0809, r19	; 0x800809 <__TEXT_REGION_LENGTH__+0x7f0809>
     bdc:	91 e0       	ldi	r25, 0x01	; 1
     bde:	81 11       	cpse	r24, r1
     be0:	01 c0       	rjmp	.+2      	; 0xbe4 <USART0_init+0x34>
     be2:	90 e0       	ldi	r25, 0x00	; 0
     be4:	e0 e0       	ldi	r30, 0x00	; 0
     be6:	f8 e0       	ldi	r31, 0x08	; 8
     be8:	95 83       	std	Z+5, r25	; 0x05
     bea:	82 ec       	ldi	r24, 0xC2	; 194
     bec:	86 83       	std	Z+6, r24	; 0x06
     bee:	83 e0       	ldi	r24, 0x03	; 3
     bf0:	87 83       	std	Z+7, r24	; 0x07
     bf2:	08 95       	ret

00000bf4 <USART0_readChar>:
     bf4:	ff 92       	push	r15
     bf6:	0f 93       	push	r16
     bf8:	1f 93       	push	r17
     bfa:	cf 93       	push	r28
     bfc:	df 93       	push	r29
     bfe:	80 e8       	ldi	r24, 0x80	; 128
     c00:	80 93 04 08 	sts	0x0804, r24	; 0x800804 <__TEXT_REGION_LENGTH__+0x7f0804>
     c04:	68 94       	set
     c06:	ff 24       	eor	r15, r15
     c08:	f6 f8       	bld	r15, 6
     c0a:	0d e0       	ldi	r16, 0x0D	; 13
     c0c:	13 e0       	ldi	r17, 0x03	; 3
     c0e:	d0 e0       	ldi	r29, 0x00	; 0
     c10:	c0 e0       	ldi	r28, 0x00	; 0
     c12:	b0 e0       	ldi	r27, 0x00	; 0
     c14:	f0 e0       	ldi	r31, 0x00	; 0
     c16:	e0 e0       	ldi	r30, 0x00	; 0
     c18:	1b c0       	rjmp	.+54     	; 0xc50 <USART0_readChar+0x5c>
     c1a:	2f 2d       	mov	r18, r15
     c1c:	30 2f       	mov	r19, r16
     c1e:	41 2f       	mov	r20, r17
     c20:	5d 2f       	mov	r21, r29
     c22:	6c 2f       	mov	r22, r28
     c24:	7b 2f       	mov	r23, r27
     c26:	8f 2f       	mov	r24, r31
     c28:	9e 2f       	mov	r25, r30
     c2a:	af ef       	ldi	r26, 0xFF	; 255
     c2c:	0e 94 bb 06 	call	0xd76	; 0xd76 <__adddi3_s8>
     c30:	f2 2e       	mov	r15, r18
     c32:	03 2f       	mov	r16, r19
     c34:	14 2f       	mov	r17, r20
     c36:	d5 2f       	mov	r29, r21
     c38:	c6 2f       	mov	r28, r22
     c3a:	b7 2f       	mov	r27, r23
     c3c:	f8 2f       	mov	r31, r24
     c3e:	e9 2f       	mov	r30, r25
     c40:	a0 e0       	ldi	r26, 0x00	; 0
     c42:	0e 94 c7 06 	call	0xd8e	; 0xd8e <__cmpdi2_s8>
     c46:	21 f4       	brne	.+8      	; 0xc50 <USART0_readChar+0x5c>
     c48:	81 e0       	ldi	r24, 0x01	; 1
     c4a:	80 93 7c 65 	sts	0x657C, r24	; 0x80657c <RS485+0x1>
     c4e:	04 c0       	rjmp	.+8      	; 0xc58 <USART0_readChar+0x64>
     c50:	80 91 04 08 	lds	r24, 0x0804	; 0x800804 <__TEXT_REGION_LENGTH__+0x7f0804>
     c54:	88 23       	and	r24, r24
     c56:	0c f7       	brge	.-62     	; 0xc1a <USART0_readChar+0x26>
     c58:	80 91 00 08 	lds	r24, 0x0800	; 0x800800 <__TEXT_REGION_LENGTH__+0x7f0800>
     c5c:	df 91       	pop	r29
     c5e:	cf 91       	pop	r28
     c60:	1f 91       	pop	r17
     c62:	0f 91       	pop	r16
     c64:	ff 90       	pop	r15
     c66:	08 95       	ret

00000c68 <USART0_sendChar>:
     c68:	90 91 04 08 	lds	r25, 0x0804	; 0x800804 <__TEXT_REGION_LENGTH__+0x7f0804>
     c6c:	95 ff       	sbrs	r25, 5
     c6e:	fc cf       	rjmp	.-8      	; 0xc68 <USART0_sendChar>
     c70:	80 93 02 08 	sts	0x0802, r24	; 0x800802 <__TEXT_REGION_LENGTH__+0x7f0802>
     c74:	08 95       	ret

00000c76 <USART0_sendString>:
     c76:	0f 93       	push	r16
     c78:	1f 93       	push	r17
     c7a:	cf 93       	push	r28
     c7c:	df 93       	push	r29
     c7e:	8c 01       	movw	r16, r24
     c80:	c0 e0       	ldi	r28, 0x00	; 0
     c82:	d0 e0       	ldi	r29, 0x00	; 0
     c84:	07 c0       	rjmp	.+14     	; 0xc94 <USART0_sendString+0x1e>
     c86:	f8 01       	movw	r30, r16
     c88:	ec 0f       	add	r30, r28
     c8a:	fd 1f       	adc	r31, r29
     c8c:	80 81       	ld	r24, Z
     c8e:	0e 94 34 06 	call	0xc68	; 0xc68 <USART0_sendChar>
     c92:	21 96       	adiw	r28, 0x01	; 1
     c94:	f8 01       	movw	r30, r16
     c96:	01 90       	ld	r0, Z+
     c98:	00 20       	and	r0, r0
     c9a:	e9 f7       	brne	.-6      	; 0xc96 <USART0_sendString+0x20>
     c9c:	31 97       	sbiw	r30, 0x01	; 1
     c9e:	e0 1b       	sub	r30, r16
     ca0:	f1 0b       	sbc	r31, r17
     ca2:	ce 17       	cp	r28, r30
     ca4:	df 07       	cpc	r29, r31
     ca6:	78 f3       	brcs	.-34     	; 0xc86 <USART0_sendString+0x10>
     ca8:	df 91       	pop	r29
     caa:	cf 91       	pop	r28
     cac:	1f 91       	pop	r17
     cae:	0f 91       	pop	r16
     cb0:	08 95       	ret

00000cb2 <USART1_init>:
     cb2:	e0 e2       	ldi	r30, 0x20	; 32
     cb4:	f8 e0       	ldi	r31, 0x08	; 8
     cb6:	83 e8       	ldi	r24, 0x83	; 131
     cb8:	96 e0       	ldi	r25, 0x06	; 6
     cba:	80 87       	std	Z+8, r24	; 0x08
     cbc:	91 87       	std	Z+9, r25	; 0x09
     cbe:	82 ec       	ldi	r24, 0xC2	; 194
     cc0:	86 83       	std	Z+6, r24	; 0x06
     cc2:	83 e0       	ldi	r24, 0x03	; 3
     cc4:	87 83       	std	Z+7, r24	; 0x07
     cc6:	08 95       	ret

00000cc8 <USART1_sendChar>:
     cc8:	90 91 24 08 	lds	r25, 0x0824	; 0x800824 <__TEXT_REGION_LENGTH__+0x7f0824>
     ccc:	95 ff       	sbrs	r25, 5
     cce:	fc cf       	rjmp	.-8      	; 0xcc8 <USART1_sendChar>
     cd0:	80 93 22 08 	sts	0x0822, r24	; 0x800822 <__TEXT_REGION_LENGTH__+0x7f0822>
     cd4:	08 95       	ret

00000cd6 <USART1_sendString>:
     cd6:	0f 93       	push	r16
     cd8:	1f 93       	push	r17
     cda:	cf 93       	push	r28
     cdc:	df 93       	push	r29
     cde:	8c 01       	movw	r16, r24
     ce0:	c0 e0       	ldi	r28, 0x00	; 0
     ce2:	d0 e0       	ldi	r29, 0x00	; 0
     ce4:	07 c0       	rjmp	.+14     	; 0xcf4 <USART1_sendString+0x1e>
     ce6:	f8 01       	movw	r30, r16
     ce8:	ec 0f       	add	r30, r28
     cea:	fd 1f       	adc	r31, r29
     cec:	80 81       	ld	r24, Z
     cee:	0e 94 64 06 	call	0xcc8	; 0xcc8 <USART1_sendChar>
     cf2:	21 96       	adiw	r28, 0x01	; 1
     cf4:	f8 01       	movw	r30, r16
     cf6:	01 90       	ld	r0, Z+
     cf8:	00 20       	and	r0, r0
     cfa:	e9 f7       	brne	.-6      	; 0xcf6 <USART1_sendString+0x20>
     cfc:	31 97       	sbiw	r30, 0x01	; 1
     cfe:	e0 1b       	sub	r30, r16
     d00:	f1 0b       	sbc	r31, r17
     d02:	ce 17       	cp	r28, r30
     d04:	df 07       	cpc	r29, r31
     d06:	78 f3       	brcs	.-34     	; 0xce6 <USART1_sendString+0x10>
     d08:	df 91       	pop	r29
     d0a:	cf 91       	pop	r28
     d0c:	1f 91       	pop	r17
     d0e:	0f 91       	pop	r16
     d10:	08 95       	ret

00000d12 <USART_printf>:
 * 
 * @param usart_number The USART number (0 or 1).
 * @param format The format string.
 * @param ... The arguments to be formatted into the string.
 */
void USART_printf(uint8_t usart_number, const char *format, ...) {
     d12:	1f 93       	push	r17
     d14:	cf 93       	push	r28
     d16:	df 93       	push	r29
     d18:	cd b7       	in	r28, 0x3d	; 61
     d1a:	de b7       	in	r29, 0x3e	; 62
     d1c:	c0 58       	subi	r28, 0x80	; 128
     d1e:	d1 09       	sbc	r29, r1
     d20:	cd bf       	out	0x3d, r28	; 61
     d22:	de bf       	out	0x3e, r29	; 62
     d24:	ca 57       	subi	r28, 0x7A	; 122
     d26:	df 4f       	sbci	r29, 0xFF	; 255
     d28:	18 81       	ld	r17, Y
     d2a:	c6 58       	subi	r28, 0x86	; 134
     d2c:	d0 40       	sbci	r29, 0x00	; 0
	char buffer[128]; // Temporary buffer for formatted message
	va_list args;
	va_start(args, format);
	vsnprintf(buffer, sizeof(buffer), format, args); // Format the message into the buffer
     d2e:	9e 01       	movw	r18, r28
     d30:	27 57       	subi	r18, 0x77	; 119
     d32:	3f 4f       	sbci	r19, 0xFF	; 255
     d34:	c9 57       	subi	r28, 0x79	; 121
     d36:	df 4f       	sbci	r29, 0xFF	; 255
     d38:	48 81       	ld	r20, Y
     d3a:	59 81       	ldd	r21, Y+1	; 0x01
     d3c:	c7 58       	subi	r28, 0x87	; 135
     d3e:	d0 40       	sbci	r29, 0x00	; 0
     d40:	60 e8       	ldi	r22, 0x80	; 128
     d42:	70 e0       	ldi	r23, 0x00	; 0
     d44:	ce 01       	movw	r24, r28
     d46:	01 96       	adiw	r24, 0x01	; 1
     d48:	0e 94 2c 07 	call	0xe58	; 0xe58 <vsnprintf>
	va_end(args);

	// Select the USART channel for sending the formatted string
	if (usart_number == 0) {
     d4c:	11 11       	cpse	r17, r1
     d4e:	05 c0       	rjmp	.+10     	; 0xd5a <USART_printf+0x48>
		USART0_sendString(buffer); // Use USART0 for sending
     d50:	ce 01       	movw	r24, r28
     d52:	01 96       	adiw	r24, 0x01	; 1
     d54:	0e 94 3b 06 	call	0xc76	; 0xc76 <USART0_sendString>
     d58:	06 c0       	rjmp	.+12     	; 0xd66 <USART_printf+0x54>
	} else if (usart_number == 1) {
     d5a:	11 30       	cpi	r17, 0x01	; 1
     d5c:	21 f4       	brne	.+8      	; 0xd66 <USART_printf+0x54>
		USART1_sendString(buffer); // Use USART1 for sending
     d5e:	ce 01       	movw	r24, r28
     d60:	01 96       	adiw	r24, 0x01	; 1
     d62:	0e 94 6b 06 	call	0xcd6	; 0xcd6 <USART1_sendString>
	} else {
		// Handle invalid USART number – add error management if needed
	}
}
     d66:	c0 58       	subi	r28, 0x80	; 128
     d68:	df 4f       	sbci	r29, 0xFF	; 255
     d6a:	cd bf       	out	0x3d, r28	; 61
     d6c:	de bf       	out	0x3e, r29	; 62
     d6e:	df 91       	pop	r29
     d70:	cf 91       	pop	r28
     d72:	1f 91       	pop	r17
     d74:	08 95       	ret

00000d76 <__adddi3_s8>:
     d76:	00 24       	eor	r0, r0
     d78:	a7 fd       	sbrc	r26, 7
     d7a:	00 94       	com	r0
     d7c:	2a 0f       	add	r18, r26
     d7e:	30 1d       	adc	r19, r0
     d80:	40 1d       	adc	r20, r0
     d82:	50 1d       	adc	r21, r0
     d84:	60 1d       	adc	r22, r0
     d86:	70 1d       	adc	r23, r0
     d88:	80 1d       	adc	r24, r0
     d8a:	90 1d       	adc	r25, r0
     d8c:	08 95       	ret

00000d8e <__cmpdi2_s8>:
     d8e:	00 24       	eor	r0, r0
     d90:	a7 fd       	sbrc	r26, 7
     d92:	00 94       	com	r0
     d94:	2a 17       	cp	r18, r26
     d96:	30 05       	cpc	r19, r0
     d98:	40 05       	cpc	r20, r0
     d9a:	50 05       	cpc	r21, r0
     d9c:	60 05       	cpc	r22, r0
     d9e:	70 05       	cpc	r23, r0
     da0:	80 05       	cpc	r24, r0
     da2:	90 05       	cpc	r25, r0
     da4:	08 95       	ret

00000da6 <strncpy>:
     da6:	fb 01       	movw	r30, r22
     da8:	dc 01       	movw	r26, r24
     daa:	41 50       	subi	r20, 0x01	; 1
     dac:	50 40       	sbci	r21, 0x00	; 0
     dae:	48 f0       	brcs	.+18     	; 0xdc2 <strncpy+0x1c>
     db0:	01 90       	ld	r0, Z+
     db2:	0d 92       	st	X+, r0
     db4:	00 20       	and	r0, r0
     db6:	c9 f7       	brne	.-14     	; 0xdaa <strncpy+0x4>
     db8:	01 c0       	rjmp	.+2      	; 0xdbc <strncpy+0x16>
     dba:	1d 92       	st	X+, r1
     dbc:	41 50       	subi	r20, 0x01	; 1
     dbe:	50 40       	sbci	r21, 0x00	; 0
     dc0:	e0 f7       	brcc	.-8      	; 0xdba <strncpy+0x14>
     dc2:	08 95       	ret

00000dc4 <strstr>:
     dc4:	fb 01       	movw	r30, r22
     dc6:	51 91       	ld	r21, Z+
     dc8:	55 23       	and	r21, r21
     dca:	a9 f0       	breq	.+42     	; 0xdf6 <strstr+0x32>
     dcc:	bf 01       	movw	r22, r30
     dce:	dc 01       	movw	r26, r24
     dd0:	4d 91       	ld	r20, X+
     dd2:	45 17       	cp	r20, r21
     dd4:	41 11       	cpse	r20, r1
     dd6:	e1 f7       	brne	.-8      	; 0xdd0 <strstr+0xc>
     dd8:	59 f4       	brne	.+22     	; 0xdf0 <strstr+0x2c>
     dda:	cd 01       	movw	r24, r26
     ddc:	01 90       	ld	r0, Z+
     dde:	00 20       	and	r0, r0
     de0:	49 f0       	breq	.+18     	; 0xdf4 <strstr+0x30>
     de2:	4d 91       	ld	r20, X+
     de4:	40 15       	cp	r20, r0
     de6:	41 11       	cpse	r20, r1
     de8:	c9 f3       	breq	.-14     	; 0xddc <strstr+0x18>
     dea:	fb 01       	movw	r30, r22
     dec:	41 11       	cpse	r20, r1
     dee:	ef cf       	rjmp	.-34     	; 0xdce <strstr+0xa>
     df0:	81 e0       	ldi	r24, 0x01	; 1
     df2:	90 e0       	ldi	r25, 0x00	; 0
     df4:	01 97       	sbiw	r24, 0x01	; 1
     df6:	08 95       	ret

00000df8 <snprintf>:
     df8:	ae e0       	ldi	r26, 0x0E	; 14
     dfa:	b0 e0       	ldi	r27, 0x00	; 0
     dfc:	e2 e0       	ldi	r30, 0x02	; 2
     dfe:	f7 e0       	ldi	r31, 0x07	; 7
     e00:	0c 94 fd 09 	jmp	0x13fa	; 0x13fa <__prologue_saves__+0x1c>
     e04:	0d 89       	ldd	r16, Y+21	; 0x15
     e06:	1e 89       	ldd	r17, Y+22	; 0x16
     e08:	8f 89       	ldd	r24, Y+23	; 0x17
     e0a:	98 8d       	ldd	r25, Y+24	; 0x18
     e0c:	26 e0       	ldi	r18, 0x06	; 6
     e0e:	2c 83       	std	Y+4, r18	; 0x04
     e10:	09 83       	std	Y+1, r16	; 0x01
     e12:	1a 83       	std	Y+2, r17	; 0x02
     e14:	97 ff       	sbrs	r25, 7
     e16:	02 c0       	rjmp	.+4      	; 0xe1c <snprintf+0x24>
     e18:	80 e0       	ldi	r24, 0x00	; 0
     e1a:	90 e8       	ldi	r25, 0x80	; 128
     e1c:	01 97       	sbiw	r24, 0x01	; 1
     e1e:	8d 83       	std	Y+5, r24	; 0x05
     e20:	9e 83       	std	Y+6, r25	; 0x06
     e22:	ae 01       	movw	r20, r28
     e24:	45 5e       	subi	r20, 0xE5	; 229
     e26:	5f 4f       	sbci	r21, 0xFF	; 255
     e28:	69 8d       	ldd	r22, Y+25	; 0x19
     e2a:	7a 8d       	ldd	r23, Y+26	; 0x1a
     e2c:	ce 01       	movw	r24, r28
     e2e:	01 96       	adiw	r24, 0x01	; 1
     e30:	0e 94 58 07 	call	0xeb0	; 0xeb0 <vfprintf>
     e34:	4d 81       	ldd	r20, Y+5	; 0x05
     e36:	5e 81       	ldd	r21, Y+6	; 0x06
     e38:	57 fd       	sbrc	r21, 7
     e3a:	0a c0       	rjmp	.+20     	; 0xe50 <snprintf+0x58>
     e3c:	2f 81       	ldd	r18, Y+7	; 0x07
     e3e:	38 85       	ldd	r19, Y+8	; 0x08
     e40:	42 17       	cp	r20, r18
     e42:	53 07       	cpc	r21, r19
     e44:	0c f4       	brge	.+2      	; 0xe48 <snprintf+0x50>
     e46:	9a 01       	movw	r18, r20
     e48:	f8 01       	movw	r30, r16
     e4a:	e2 0f       	add	r30, r18
     e4c:	f3 1f       	adc	r31, r19
     e4e:	10 82       	st	Z, r1
     e50:	2e 96       	adiw	r28, 0x0e	; 14
     e52:	e4 e0       	ldi	r30, 0x04	; 4
     e54:	0c 94 16 0a 	jmp	0x142c	; 0x142c <__epilogue_restores__+0x1c>

00000e58 <vsnprintf>:
     e58:	ae e0       	ldi	r26, 0x0E	; 14
     e5a:	b0 e0       	ldi	r27, 0x00	; 0
     e5c:	e2 e3       	ldi	r30, 0x32	; 50
     e5e:	f7 e0       	ldi	r31, 0x07	; 7
     e60:	0c 94 fd 09 	jmp	0x13fa	; 0x13fa <__prologue_saves__+0x1c>
     e64:	8c 01       	movw	r16, r24
     e66:	fa 01       	movw	r30, r20
     e68:	86 e0       	ldi	r24, 0x06	; 6
     e6a:	8c 83       	std	Y+4, r24	; 0x04
     e6c:	09 83       	std	Y+1, r16	; 0x01
     e6e:	1a 83       	std	Y+2, r17	; 0x02
     e70:	77 ff       	sbrs	r23, 7
     e72:	02 c0       	rjmp	.+4      	; 0xe78 <vsnprintf+0x20>
     e74:	60 e0       	ldi	r22, 0x00	; 0
     e76:	70 e8       	ldi	r23, 0x80	; 128
     e78:	cb 01       	movw	r24, r22
     e7a:	01 97       	sbiw	r24, 0x01	; 1
     e7c:	8d 83       	std	Y+5, r24	; 0x05
     e7e:	9e 83       	std	Y+6, r25	; 0x06
     e80:	a9 01       	movw	r20, r18
     e82:	bf 01       	movw	r22, r30
     e84:	ce 01       	movw	r24, r28
     e86:	01 96       	adiw	r24, 0x01	; 1
     e88:	0e 94 58 07 	call	0xeb0	; 0xeb0 <vfprintf>
     e8c:	4d 81       	ldd	r20, Y+5	; 0x05
     e8e:	5e 81       	ldd	r21, Y+6	; 0x06
     e90:	57 fd       	sbrc	r21, 7
     e92:	0a c0       	rjmp	.+20     	; 0xea8 <vsnprintf+0x50>
     e94:	2f 81       	ldd	r18, Y+7	; 0x07
     e96:	38 85       	ldd	r19, Y+8	; 0x08
     e98:	42 17       	cp	r20, r18
     e9a:	53 07       	cpc	r21, r19
     e9c:	0c f4       	brge	.+2      	; 0xea0 <vsnprintf+0x48>
     e9e:	9a 01       	movw	r18, r20
     ea0:	f8 01       	movw	r30, r16
     ea2:	e2 0f       	add	r30, r18
     ea4:	f3 1f       	adc	r31, r19
     ea6:	10 82       	st	Z, r1
     ea8:	2e 96       	adiw	r28, 0x0e	; 14
     eaa:	e4 e0       	ldi	r30, 0x04	; 4
     eac:	0c 94 16 0a 	jmp	0x142c	; 0x142c <__epilogue_restores__+0x1c>

00000eb0 <vfprintf>:
     eb0:	ab e0       	ldi	r26, 0x0B	; 11
     eb2:	b0 e0       	ldi	r27, 0x00	; 0
     eb4:	ee e5       	ldi	r30, 0x5E	; 94
     eb6:	f7 e0       	ldi	r31, 0x07	; 7
     eb8:	0c 94 ef 09 	jmp	0x13de	; 0x13de <__prologue_saves__>
     ebc:	6c 01       	movw	r12, r24
     ebe:	7b 01       	movw	r14, r22
     ec0:	8a 01       	movw	r16, r20
     ec2:	fc 01       	movw	r30, r24
     ec4:	16 82       	std	Z+6, r1	; 0x06
     ec6:	17 82       	std	Z+7, r1	; 0x07
     ec8:	83 81       	ldd	r24, Z+3	; 0x03
     eca:	81 ff       	sbrs	r24, 1
     ecc:	cc c1       	rjmp	.+920    	; 0x1266 <vfprintf+0x3b6>
     ece:	ce 01       	movw	r24, r28
     ed0:	01 96       	adiw	r24, 0x01	; 1
     ed2:	3c 01       	movw	r6, r24
     ed4:	f6 01       	movw	r30, r12
     ed6:	93 81       	ldd	r25, Z+3	; 0x03
     ed8:	f7 01       	movw	r30, r14
     eda:	93 fd       	sbrc	r25, 3
     edc:	85 91       	lpm	r24, Z+
     ede:	93 ff       	sbrs	r25, 3
     ee0:	81 91       	ld	r24, Z+
     ee2:	7f 01       	movw	r14, r30
     ee4:	88 23       	and	r24, r24
     ee6:	09 f4       	brne	.+2      	; 0xeea <vfprintf+0x3a>
     ee8:	ba c1       	rjmp	.+884    	; 0x125e <vfprintf+0x3ae>
     eea:	85 32       	cpi	r24, 0x25	; 37
     eec:	39 f4       	brne	.+14     	; 0xefc <vfprintf+0x4c>
     eee:	93 fd       	sbrc	r25, 3
     ef0:	85 91       	lpm	r24, Z+
     ef2:	93 ff       	sbrs	r25, 3
     ef4:	81 91       	ld	r24, Z+
     ef6:	7f 01       	movw	r14, r30
     ef8:	85 32       	cpi	r24, 0x25	; 37
     efa:	29 f4       	brne	.+10     	; 0xf06 <vfprintf+0x56>
     efc:	b6 01       	movw	r22, r12
     efe:	90 e0       	ldi	r25, 0x00	; 0
     f00:	0e 94 4f 09 	call	0x129e	; 0x129e <fputc>
     f04:	e7 cf       	rjmp	.-50     	; 0xed4 <vfprintf+0x24>
     f06:	91 2c       	mov	r9, r1
     f08:	21 2c       	mov	r2, r1
     f0a:	31 2c       	mov	r3, r1
     f0c:	ff e1       	ldi	r31, 0x1F	; 31
     f0e:	f3 15       	cp	r31, r3
     f10:	d8 f0       	brcs	.+54     	; 0xf48 <vfprintf+0x98>
     f12:	8b 32       	cpi	r24, 0x2B	; 43
     f14:	79 f0       	breq	.+30     	; 0xf34 <vfprintf+0x84>
     f16:	38 f4       	brcc	.+14     	; 0xf26 <vfprintf+0x76>
     f18:	80 32       	cpi	r24, 0x20	; 32
     f1a:	79 f0       	breq	.+30     	; 0xf3a <vfprintf+0x8a>
     f1c:	83 32       	cpi	r24, 0x23	; 35
     f1e:	a1 f4       	brne	.+40     	; 0xf48 <vfprintf+0x98>
     f20:	23 2d       	mov	r18, r3
     f22:	20 61       	ori	r18, 0x10	; 16
     f24:	1d c0       	rjmp	.+58     	; 0xf60 <vfprintf+0xb0>
     f26:	8d 32       	cpi	r24, 0x2D	; 45
     f28:	61 f0       	breq	.+24     	; 0xf42 <vfprintf+0x92>
     f2a:	80 33       	cpi	r24, 0x30	; 48
     f2c:	69 f4       	brne	.+26     	; 0xf48 <vfprintf+0x98>
     f2e:	23 2d       	mov	r18, r3
     f30:	21 60       	ori	r18, 0x01	; 1
     f32:	16 c0       	rjmp	.+44     	; 0xf60 <vfprintf+0xb0>
     f34:	83 2d       	mov	r24, r3
     f36:	82 60       	ori	r24, 0x02	; 2
     f38:	38 2e       	mov	r3, r24
     f3a:	e3 2d       	mov	r30, r3
     f3c:	e4 60       	ori	r30, 0x04	; 4
     f3e:	3e 2e       	mov	r3, r30
     f40:	2a c0       	rjmp	.+84     	; 0xf96 <vfprintf+0xe6>
     f42:	f3 2d       	mov	r31, r3
     f44:	f8 60       	ori	r31, 0x08	; 8
     f46:	1d c0       	rjmp	.+58     	; 0xf82 <vfprintf+0xd2>
     f48:	37 fc       	sbrc	r3, 7
     f4a:	2d c0       	rjmp	.+90     	; 0xfa6 <vfprintf+0xf6>
     f4c:	20 ed       	ldi	r18, 0xD0	; 208
     f4e:	28 0f       	add	r18, r24
     f50:	2a 30       	cpi	r18, 0x0A	; 10
     f52:	40 f0       	brcs	.+16     	; 0xf64 <vfprintf+0xb4>
     f54:	8e 32       	cpi	r24, 0x2E	; 46
     f56:	b9 f4       	brne	.+46     	; 0xf86 <vfprintf+0xd6>
     f58:	36 fc       	sbrc	r3, 6
     f5a:	81 c1       	rjmp	.+770    	; 0x125e <vfprintf+0x3ae>
     f5c:	23 2d       	mov	r18, r3
     f5e:	20 64       	ori	r18, 0x40	; 64
     f60:	32 2e       	mov	r3, r18
     f62:	19 c0       	rjmp	.+50     	; 0xf96 <vfprintf+0xe6>
     f64:	36 fe       	sbrs	r3, 6
     f66:	06 c0       	rjmp	.+12     	; 0xf74 <vfprintf+0xc4>
     f68:	8a e0       	ldi	r24, 0x0A	; 10
     f6a:	98 9e       	mul	r9, r24
     f6c:	20 0d       	add	r18, r0
     f6e:	11 24       	eor	r1, r1
     f70:	92 2e       	mov	r9, r18
     f72:	11 c0       	rjmp	.+34     	; 0xf96 <vfprintf+0xe6>
     f74:	ea e0       	ldi	r30, 0x0A	; 10
     f76:	2e 9e       	mul	r2, r30
     f78:	20 0d       	add	r18, r0
     f7a:	11 24       	eor	r1, r1
     f7c:	22 2e       	mov	r2, r18
     f7e:	f3 2d       	mov	r31, r3
     f80:	f0 62       	ori	r31, 0x20	; 32
     f82:	3f 2e       	mov	r3, r31
     f84:	08 c0       	rjmp	.+16     	; 0xf96 <vfprintf+0xe6>
     f86:	8c 36       	cpi	r24, 0x6C	; 108
     f88:	21 f4       	brne	.+8      	; 0xf92 <vfprintf+0xe2>
     f8a:	83 2d       	mov	r24, r3
     f8c:	80 68       	ori	r24, 0x80	; 128
     f8e:	38 2e       	mov	r3, r24
     f90:	02 c0       	rjmp	.+4      	; 0xf96 <vfprintf+0xe6>
     f92:	88 36       	cpi	r24, 0x68	; 104
     f94:	41 f4       	brne	.+16     	; 0xfa6 <vfprintf+0xf6>
     f96:	f7 01       	movw	r30, r14
     f98:	93 fd       	sbrc	r25, 3
     f9a:	85 91       	lpm	r24, Z+
     f9c:	93 ff       	sbrs	r25, 3
     f9e:	81 91       	ld	r24, Z+
     fa0:	7f 01       	movw	r14, r30
     fa2:	81 11       	cpse	r24, r1
     fa4:	b3 cf       	rjmp	.-154    	; 0xf0c <vfprintf+0x5c>
     fa6:	98 2f       	mov	r25, r24
     fa8:	9f 7d       	andi	r25, 0xDF	; 223
     faa:	95 54       	subi	r25, 0x45	; 69
     fac:	93 30       	cpi	r25, 0x03	; 3
     fae:	28 f4       	brcc	.+10     	; 0xfba <vfprintf+0x10a>
     fb0:	0c 5f       	subi	r16, 0xFC	; 252
     fb2:	1f 4f       	sbci	r17, 0xFF	; 255
     fb4:	9f e3       	ldi	r25, 0x3F	; 63
     fb6:	99 83       	std	Y+1, r25	; 0x01
     fb8:	0d c0       	rjmp	.+26     	; 0xfd4 <vfprintf+0x124>
     fba:	83 36       	cpi	r24, 0x63	; 99
     fbc:	31 f0       	breq	.+12     	; 0xfca <vfprintf+0x11a>
     fbe:	83 37       	cpi	r24, 0x73	; 115
     fc0:	71 f0       	breq	.+28     	; 0xfde <vfprintf+0x12e>
     fc2:	83 35       	cpi	r24, 0x53	; 83
     fc4:	09 f0       	breq	.+2      	; 0xfc8 <vfprintf+0x118>
     fc6:	59 c0       	rjmp	.+178    	; 0x107a <vfprintf+0x1ca>
     fc8:	21 c0       	rjmp	.+66     	; 0x100c <vfprintf+0x15c>
     fca:	f8 01       	movw	r30, r16
     fcc:	80 81       	ld	r24, Z
     fce:	89 83       	std	Y+1, r24	; 0x01
     fd0:	0e 5f       	subi	r16, 0xFE	; 254
     fd2:	1f 4f       	sbci	r17, 0xFF	; 255
     fd4:	88 24       	eor	r8, r8
     fd6:	83 94       	inc	r8
     fd8:	91 2c       	mov	r9, r1
     fda:	53 01       	movw	r10, r6
     fdc:	13 c0       	rjmp	.+38     	; 0x1004 <vfprintf+0x154>
     fde:	28 01       	movw	r4, r16
     fe0:	f2 e0       	ldi	r31, 0x02	; 2
     fe2:	4f 0e       	add	r4, r31
     fe4:	51 1c       	adc	r5, r1
     fe6:	f8 01       	movw	r30, r16
     fe8:	a0 80       	ld	r10, Z
     fea:	b1 80       	ldd	r11, Z+1	; 0x01
     fec:	36 fe       	sbrs	r3, 6
     fee:	03 c0       	rjmp	.+6      	; 0xff6 <vfprintf+0x146>
     ff0:	69 2d       	mov	r22, r9
     ff2:	70 e0       	ldi	r23, 0x00	; 0
     ff4:	02 c0       	rjmp	.+4      	; 0xffa <vfprintf+0x14a>
     ff6:	6f ef       	ldi	r22, 0xFF	; 255
     ff8:	7f ef       	ldi	r23, 0xFF	; 255
     ffa:	c5 01       	movw	r24, r10
     ffc:	0e 94 44 09 	call	0x1288	; 0x1288 <strnlen>
    1000:	4c 01       	movw	r8, r24
    1002:	82 01       	movw	r16, r4
    1004:	f3 2d       	mov	r31, r3
    1006:	ff 77       	andi	r31, 0x7F	; 127
    1008:	3f 2e       	mov	r3, r31
    100a:	16 c0       	rjmp	.+44     	; 0x1038 <vfprintf+0x188>
    100c:	28 01       	movw	r4, r16
    100e:	22 e0       	ldi	r18, 0x02	; 2
    1010:	42 0e       	add	r4, r18
    1012:	51 1c       	adc	r5, r1
    1014:	f8 01       	movw	r30, r16
    1016:	a0 80       	ld	r10, Z
    1018:	b1 80       	ldd	r11, Z+1	; 0x01
    101a:	36 fe       	sbrs	r3, 6
    101c:	03 c0       	rjmp	.+6      	; 0x1024 <vfprintf+0x174>
    101e:	69 2d       	mov	r22, r9
    1020:	70 e0       	ldi	r23, 0x00	; 0
    1022:	02 c0       	rjmp	.+4      	; 0x1028 <vfprintf+0x178>
    1024:	6f ef       	ldi	r22, 0xFF	; 255
    1026:	7f ef       	ldi	r23, 0xFF	; 255
    1028:	c5 01       	movw	r24, r10
    102a:	0e 94 39 09 	call	0x1272	; 0x1272 <strnlen_P>
    102e:	4c 01       	movw	r8, r24
    1030:	f3 2d       	mov	r31, r3
    1032:	f0 68       	ori	r31, 0x80	; 128
    1034:	3f 2e       	mov	r3, r31
    1036:	82 01       	movw	r16, r4
    1038:	33 fc       	sbrc	r3, 3
    103a:	1b c0       	rjmp	.+54     	; 0x1072 <vfprintf+0x1c2>
    103c:	82 2d       	mov	r24, r2
    103e:	90 e0       	ldi	r25, 0x00	; 0
    1040:	88 16       	cp	r8, r24
    1042:	99 06       	cpc	r9, r25
    1044:	b0 f4       	brcc	.+44     	; 0x1072 <vfprintf+0x1c2>
    1046:	b6 01       	movw	r22, r12
    1048:	80 e2       	ldi	r24, 0x20	; 32
    104a:	90 e0       	ldi	r25, 0x00	; 0
    104c:	0e 94 4f 09 	call	0x129e	; 0x129e <fputc>
    1050:	2a 94       	dec	r2
    1052:	f4 cf       	rjmp	.-24     	; 0x103c <vfprintf+0x18c>
    1054:	f5 01       	movw	r30, r10
    1056:	37 fc       	sbrc	r3, 7
    1058:	85 91       	lpm	r24, Z+
    105a:	37 fe       	sbrs	r3, 7
    105c:	81 91       	ld	r24, Z+
    105e:	5f 01       	movw	r10, r30
    1060:	b6 01       	movw	r22, r12
    1062:	90 e0       	ldi	r25, 0x00	; 0
    1064:	0e 94 4f 09 	call	0x129e	; 0x129e <fputc>
    1068:	21 10       	cpse	r2, r1
    106a:	2a 94       	dec	r2
    106c:	21 e0       	ldi	r18, 0x01	; 1
    106e:	82 1a       	sub	r8, r18
    1070:	91 08       	sbc	r9, r1
    1072:	81 14       	cp	r8, r1
    1074:	91 04       	cpc	r9, r1
    1076:	71 f7       	brne	.-36     	; 0x1054 <vfprintf+0x1a4>
    1078:	e8 c0       	rjmp	.+464    	; 0x124a <vfprintf+0x39a>
    107a:	84 36       	cpi	r24, 0x64	; 100
    107c:	11 f0       	breq	.+4      	; 0x1082 <vfprintf+0x1d2>
    107e:	89 36       	cpi	r24, 0x69	; 105
    1080:	41 f5       	brne	.+80     	; 0x10d2 <vfprintf+0x222>
    1082:	f8 01       	movw	r30, r16
    1084:	37 fe       	sbrs	r3, 7
    1086:	07 c0       	rjmp	.+14     	; 0x1096 <vfprintf+0x1e6>
    1088:	60 81       	ld	r22, Z
    108a:	71 81       	ldd	r23, Z+1	; 0x01
    108c:	82 81       	ldd	r24, Z+2	; 0x02
    108e:	93 81       	ldd	r25, Z+3	; 0x03
    1090:	0c 5f       	subi	r16, 0xFC	; 252
    1092:	1f 4f       	sbci	r17, 0xFF	; 255
    1094:	08 c0       	rjmp	.+16     	; 0x10a6 <vfprintf+0x1f6>
    1096:	60 81       	ld	r22, Z
    1098:	71 81       	ldd	r23, Z+1	; 0x01
    109a:	07 2e       	mov	r0, r23
    109c:	00 0c       	add	r0, r0
    109e:	88 0b       	sbc	r24, r24
    10a0:	99 0b       	sbc	r25, r25
    10a2:	0e 5f       	subi	r16, 0xFE	; 254
    10a4:	1f 4f       	sbci	r17, 0xFF	; 255
    10a6:	f3 2d       	mov	r31, r3
    10a8:	ff 76       	andi	r31, 0x6F	; 111
    10aa:	3f 2e       	mov	r3, r31
    10ac:	97 ff       	sbrs	r25, 7
    10ae:	09 c0       	rjmp	.+18     	; 0x10c2 <vfprintf+0x212>
    10b0:	90 95       	com	r25
    10b2:	80 95       	com	r24
    10b4:	70 95       	com	r23
    10b6:	61 95       	neg	r22
    10b8:	7f 4f       	sbci	r23, 0xFF	; 255
    10ba:	8f 4f       	sbci	r24, 0xFF	; 255
    10bc:	9f 4f       	sbci	r25, 0xFF	; 255
    10be:	f0 68       	ori	r31, 0x80	; 128
    10c0:	3f 2e       	mov	r3, r31
    10c2:	2a e0       	ldi	r18, 0x0A	; 10
    10c4:	30 e0       	ldi	r19, 0x00	; 0
    10c6:	a3 01       	movw	r20, r6
    10c8:	0e 94 8b 09 	call	0x1316	; 0x1316 <__ultoa_invert>
    10cc:	88 2e       	mov	r8, r24
    10ce:	86 18       	sub	r8, r6
    10d0:	45 c0       	rjmp	.+138    	; 0x115c <vfprintf+0x2ac>
    10d2:	85 37       	cpi	r24, 0x75	; 117
    10d4:	31 f4       	brne	.+12     	; 0x10e2 <vfprintf+0x232>
    10d6:	23 2d       	mov	r18, r3
    10d8:	2f 7e       	andi	r18, 0xEF	; 239
    10da:	b2 2e       	mov	r11, r18
    10dc:	2a e0       	ldi	r18, 0x0A	; 10
    10de:	30 e0       	ldi	r19, 0x00	; 0
    10e0:	25 c0       	rjmp	.+74     	; 0x112c <vfprintf+0x27c>
    10e2:	93 2d       	mov	r25, r3
    10e4:	99 7f       	andi	r25, 0xF9	; 249
    10e6:	b9 2e       	mov	r11, r25
    10e8:	8f 36       	cpi	r24, 0x6F	; 111
    10ea:	c1 f0       	breq	.+48     	; 0x111c <vfprintf+0x26c>
    10ec:	18 f4       	brcc	.+6      	; 0x10f4 <vfprintf+0x244>
    10ee:	88 35       	cpi	r24, 0x58	; 88
    10f0:	79 f0       	breq	.+30     	; 0x1110 <vfprintf+0x260>
    10f2:	b5 c0       	rjmp	.+362    	; 0x125e <vfprintf+0x3ae>
    10f4:	80 37       	cpi	r24, 0x70	; 112
    10f6:	19 f0       	breq	.+6      	; 0x10fe <vfprintf+0x24e>
    10f8:	88 37       	cpi	r24, 0x78	; 120
    10fa:	21 f0       	breq	.+8      	; 0x1104 <vfprintf+0x254>
    10fc:	b0 c0       	rjmp	.+352    	; 0x125e <vfprintf+0x3ae>
    10fe:	e9 2f       	mov	r30, r25
    1100:	e0 61       	ori	r30, 0x10	; 16
    1102:	be 2e       	mov	r11, r30
    1104:	b4 fe       	sbrs	r11, 4
    1106:	0d c0       	rjmp	.+26     	; 0x1122 <vfprintf+0x272>
    1108:	fb 2d       	mov	r31, r11
    110a:	f4 60       	ori	r31, 0x04	; 4
    110c:	bf 2e       	mov	r11, r31
    110e:	09 c0       	rjmp	.+18     	; 0x1122 <vfprintf+0x272>
    1110:	34 fe       	sbrs	r3, 4
    1112:	0a c0       	rjmp	.+20     	; 0x1128 <vfprintf+0x278>
    1114:	29 2f       	mov	r18, r25
    1116:	26 60       	ori	r18, 0x06	; 6
    1118:	b2 2e       	mov	r11, r18
    111a:	06 c0       	rjmp	.+12     	; 0x1128 <vfprintf+0x278>
    111c:	28 e0       	ldi	r18, 0x08	; 8
    111e:	30 e0       	ldi	r19, 0x00	; 0
    1120:	05 c0       	rjmp	.+10     	; 0x112c <vfprintf+0x27c>
    1122:	20 e1       	ldi	r18, 0x10	; 16
    1124:	30 e0       	ldi	r19, 0x00	; 0
    1126:	02 c0       	rjmp	.+4      	; 0x112c <vfprintf+0x27c>
    1128:	20 e1       	ldi	r18, 0x10	; 16
    112a:	32 e0       	ldi	r19, 0x02	; 2
    112c:	f8 01       	movw	r30, r16
    112e:	b7 fe       	sbrs	r11, 7
    1130:	07 c0       	rjmp	.+14     	; 0x1140 <vfprintf+0x290>
    1132:	60 81       	ld	r22, Z
    1134:	71 81       	ldd	r23, Z+1	; 0x01
    1136:	82 81       	ldd	r24, Z+2	; 0x02
    1138:	93 81       	ldd	r25, Z+3	; 0x03
    113a:	0c 5f       	subi	r16, 0xFC	; 252
    113c:	1f 4f       	sbci	r17, 0xFF	; 255
    113e:	06 c0       	rjmp	.+12     	; 0x114c <vfprintf+0x29c>
    1140:	60 81       	ld	r22, Z
    1142:	71 81       	ldd	r23, Z+1	; 0x01
    1144:	80 e0       	ldi	r24, 0x00	; 0
    1146:	90 e0       	ldi	r25, 0x00	; 0
    1148:	0e 5f       	subi	r16, 0xFE	; 254
    114a:	1f 4f       	sbci	r17, 0xFF	; 255
    114c:	a3 01       	movw	r20, r6
    114e:	0e 94 8b 09 	call	0x1316	; 0x1316 <__ultoa_invert>
    1152:	88 2e       	mov	r8, r24
    1154:	86 18       	sub	r8, r6
    1156:	fb 2d       	mov	r31, r11
    1158:	ff 77       	andi	r31, 0x7F	; 127
    115a:	3f 2e       	mov	r3, r31
    115c:	36 fe       	sbrs	r3, 6
    115e:	0d c0       	rjmp	.+26     	; 0x117a <vfprintf+0x2ca>
    1160:	23 2d       	mov	r18, r3
    1162:	2e 7f       	andi	r18, 0xFE	; 254
    1164:	a2 2e       	mov	r10, r18
    1166:	89 14       	cp	r8, r9
    1168:	58 f4       	brcc	.+22     	; 0x1180 <vfprintf+0x2d0>
    116a:	34 fe       	sbrs	r3, 4
    116c:	0b c0       	rjmp	.+22     	; 0x1184 <vfprintf+0x2d4>
    116e:	32 fc       	sbrc	r3, 2
    1170:	09 c0       	rjmp	.+18     	; 0x1184 <vfprintf+0x2d4>
    1172:	83 2d       	mov	r24, r3
    1174:	8e 7e       	andi	r24, 0xEE	; 238
    1176:	a8 2e       	mov	r10, r24
    1178:	05 c0       	rjmp	.+10     	; 0x1184 <vfprintf+0x2d4>
    117a:	b8 2c       	mov	r11, r8
    117c:	a3 2c       	mov	r10, r3
    117e:	03 c0       	rjmp	.+6      	; 0x1186 <vfprintf+0x2d6>
    1180:	b8 2c       	mov	r11, r8
    1182:	01 c0       	rjmp	.+2      	; 0x1186 <vfprintf+0x2d6>
    1184:	b9 2c       	mov	r11, r9
    1186:	a4 fe       	sbrs	r10, 4
    1188:	0f c0       	rjmp	.+30     	; 0x11a8 <vfprintf+0x2f8>
    118a:	fe 01       	movw	r30, r28
    118c:	e8 0d       	add	r30, r8
    118e:	f1 1d       	adc	r31, r1
    1190:	80 81       	ld	r24, Z
    1192:	80 33       	cpi	r24, 0x30	; 48
    1194:	21 f4       	brne	.+8      	; 0x119e <vfprintf+0x2ee>
    1196:	9a 2d       	mov	r25, r10
    1198:	99 7e       	andi	r25, 0xE9	; 233
    119a:	a9 2e       	mov	r10, r25
    119c:	09 c0       	rjmp	.+18     	; 0x11b0 <vfprintf+0x300>
    119e:	a2 fe       	sbrs	r10, 2
    11a0:	06 c0       	rjmp	.+12     	; 0x11ae <vfprintf+0x2fe>
    11a2:	b3 94       	inc	r11
    11a4:	b3 94       	inc	r11
    11a6:	04 c0       	rjmp	.+8      	; 0x11b0 <vfprintf+0x300>
    11a8:	8a 2d       	mov	r24, r10
    11aa:	86 78       	andi	r24, 0x86	; 134
    11ac:	09 f0       	breq	.+2      	; 0x11b0 <vfprintf+0x300>
    11ae:	b3 94       	inc	r11
    11b0:	a3 fc       	sbrc	r10, 3
    11b2:	11 c0       	rjmp	.+34     	; 0x11d6 <vfprintf+0x326>
    11b4:	a0 fe       	sbrs	r10, 0
    11b6:	06 c0       	rjmp	.+12     	; 0x11c4 <vfprintf+0x314>
    11b8:	b2 14       	cp	r11, r2
    11ba:	88 f4       	brcc	.+34     	; 0x11de <vfprintf+0x32e>
    11bc:	28 0c       	add	r2, r8
    11be:	92 2c       	mov	r9, r2
    11c0:	9b 18       	sub	r9, r11
    11c2:	0e c0       	rjmp	.+28     	; 0x11e0 <vfprintf+0x330>
    11c4:	b2 14       	cp	r11, r2
    11c6:	60 f4       	brcc	.+24     	; 0x11e0 <vfprintf+0x330>
    11c8:	b6 01       	movw	r22, r12
    11ca:	80 e2       	ldi	r24, 0x20	; 32
    11cc:	90 e0       	ldi	r25, 0x00	; 0
    11ce:	0e 94 4f 09 	call	0x129e	; 0x129e <fputc>
    11d2:	b3 94       	inc	r11
    11d4:	f7 cf       	rjmp	.-18     	; 0x11c4 <vfprintf+0x314>
    11d6:	b2 14       	cp	r11, r2
    11d8:	18 f4       	brcc	.+6      	; 0x11e0 <vfprintf+0x330>
    11da:	2b 18       	sub	r2, r11
    11dc:	02 c0       	rjmp	.+4      	; 0x11e2 <vfprintf+0x332>
    11de:	98 2c       	mov	r9, r8
    11e0:	21 2c       	mov	r2, r1
    11e2:	a4 fe       	sbrs	r10, 4
    11e4:	10 c0       	rjmp	.+32     	; 0x1206 <vfprintf+0x356>
    11e6:	b6 01       	movw	r22, r12
    11e8:	80 e3       	ldi	r24, 0x30	; 48
    11ea:	90 e0       	ldi	r25, 0x00	; 0
    11ec:	0e 94 4f 09 	call	0x129e	; 0x129e <fputc>
    11f0:	a2 fe       	sbrs	r10, 2
    11f2:	17 c0       	rjmp	.+46     	; 0x1222 <vfprintf+0x372>
    11f4:	a1 fc       	sbrc	r10, 1
    11f6:	03 c0       	rjmp	.+6      	; 0x11fe <vfprintf+0x34e>
    11f8:	88 e7       	ldi	r24, 0x78	; 120
    11fa:	90 e0       	ldi	r25, 0x00	; 0
    11fc:	02 c0       	rjmp	.+4      	; 0x1202 <vfprintf+0x352>
    11fe:	88 e5       	ldi	r24, 0x58	; 88
    1200:	90 e0       	ldi	r25, 0x00	; 0
    1202:	b6 01       	movw	r22, r12
    1204:	0c c0       	rjmp	.+24     	; 0x121e <vfprintf+0x36e>
    1206:	8a 2d       	mov	r24, r10
    1208:	86 78       	andi	r24, 0x86	; 134
    120a:	59 f0       	breq	.+22     	; 0x1222 <vfprintf+0x372>
    120c:	a1 fe       	sbrs	r10, 1
    120e:	02 c0       	rjmp	.+4      	; 0x1214 <vfprintf+0x364>
    1210:	8b e2       	ldi	r24, 0x2B	; 43
    1212:	01 c0       	rjmp	.+2      	; 0x1216 <vfprintf+0x366>
    1214:	80 e2       	ldi	r24, 0x20	; 32
    1216:	a7 fc       	sbrc	r10, 7
    1218:	8d e2       	ldi	r24, 0x2D	; 45
    121a:	b6 01       	movw	r22, r12
    121c:	90 e0       	ldi	r25, 0x00	; 0
    121e:	0e 94 4f 09 	call	0x129e	; 0x129e <fputc>
    1222:	89 14       	cp	r8, r9
    1224:	38 f4       	brcc	.+14     	; 0x1234 <vfprintf+0x384>
    1226:	b6 01       	movw	r22, r12
    1228:	80 e3       	ldi	r24, 0x30	; 48
    122a:	90 e0       	ldi	r25, 0x00	; 0
    122c:	0e 94 4f 09 	call	0x129e	; 0x129e <fputc>
    1230:	9a 94       	dec	r9
    1232:	f7 cf       	rjmp	.-18     	; 0x1222 <vfprintf+0x372>
    1234:	8a 94       	dec	r8
    1236:	f3 01       	movw	r30, r6
    1238:	e8 0d       	add	r30, r8
    123a:	f1 1d       	adc	r31, r1
    123c:	80 81       	ld	r24, Z
    123e:	b6 01       	movw	r22, r12
    1240:	90 e0       	ldi	r25, 0x00	; 0
    1242:	0e 94 4f 09 	call	0x129e	; 0x129e <fputc>
    1246:	81 10       	cpse	r8, r1
    1248:	f5 cf       	rjmp	.-22     	; 0x1234 <vfprintf+0x384>
    124a:	22 20       	and	r2, r2
    124c:	09 f4       	brne	.+2      	; 0x1250 <vfprintf+0x3a0>
    124e:	42 ce       	rjmp	.-892    	; 0xed4 <vfprintf+0x24>
    1250:	b6 01       	movw	r22, r12
    1252:	80 e2       	ldi	r24, 0x20	; 32
    1254:	90 e0       	ldi	r25, 0x00	; 0
    1256:	0e 94 4f 09 	call	0x129e	; 0x129e <fputc>
    125a:	2a 94       	dec	r2
    125c:	f6 cf       	rjmp	.-20     	; 0x124a <vfprintf+0x39a>
    125e:	f6 01       	movw	r30, r12
    1260:	86 81       	ldd	r24, Z+6	; 0x06
    1262:	97 81       	ldd	r25, Z+7	; 0x07
    1264:	02 c0       	rjmp	.+4      	; 0x126a <vfprintf+0x3ba>
    1266:	8f ef       	ldi	r24, 0xFF	; 255
    1268:	9f ef       	ldi	r25, 0xFF	; 255
    126a:	2b 96       	adiw	r28, 0x0b	; 11
    126c:	e2 e1       	ldi	r30, 0x12	; 18
    126e:	0c 94 08 0a 	jmp	0x1410	; 0x1410 <__epilogue_restores__>

00001272 <strnlen_P>:
    1272:	fc 01       	movw	r30, r24
    1274:	05 90       	lpm	r0, Z+
    1276:	61 50       	subi	r22, 0x01	; 1
    1278:	70 40       	sbci	r23, 0x00	; 0
    127a:	01 10       	cpse	r0, r1
    127c:	d8 f7       	brcc	.-10     	; 0x1274 <strnlen_P+0x2>
    127e:	80 95       	com	r24
    1280:	90 95       	com	r25
    1282:	8e 0f       	add	r24, r30
    1284:	9f 1f       	adc	r25, r31
    1286:	08 95       	ret

00001288 <strnlen>:
    1288:	fc 01       	movw	r30, r24
    128a:	61 50       	subi	r22, 0x01	; 1
    128c:	70 40       	sbci	r23, 0x00	; 0
    128e:	01 90       	ld	r0, Z+
    1290:	01 10       	cpse	r0, r1
    1292:	d8 f7       	brcc	.-10     	; 0x128a <strnlen+0x2>
    1294:	80 95       	com	r24
    1296:	90 95       	com	r25
    1298:	8e 0f       	add	r24, r30
    129a:	9f 1f       	adc	r25, r31
    129c:	08 95       	ret

0000129e <fputc>:
    129e:	0f 93       	push	r16
    12a0:	1f 93       	push	r17
    12a2:	cf 93       	push	r28
    12a4:	df 93       	push	r29
    12a6:	fb 01       	movw	r30, r22
    12a8:	23 81       	ldd	r18, Z+3	; 0x03
    12aa:	21 fd       	sbrc	r18, 1
    12ac:	03 c0       	rjmp	.+6      	; 0x12b4 <fputc+0x16>
    12ae:	8f ef       	ldi	r24, 0xFF	; 255
    12b0:	9f ef       	ldi	r25, 0xFF	; 255
    12b2:	2c c0       	rjmp	.+88     	; 0x130c <fputc+0x6e>
    12b4:	22 ff       	sbrs	r18, 2
    12b6:	16 c0       	rjmp	.+44     	; 0x12e4 <fputc+0x46>
    12b8:	46 81       	ldd	r20, Z+6	; 0x06
    12ba:	57 81       	ldd	r21, Z+7	; 0x07
    12bc:	24 81       	ldd	r18, Z+4	; 0x04
    12be:	35 81       	ldd	r19, Z+5	; 0x05
    12c0:	42 17       	cp	r20, r18
    12c2:	53 07       	cpc	r21, r19
    12c4:	44 f4       	brge	.+16     	; 0x12d6 <fputc+0x38>
    12c6:	a0 81       	ld	r26, Z
    12c8:	b1 81       	ldd	r27, Z+1	; 0x01
    12ca:	9d 01       	movw	r18, r26
    12cc:	2f 5f       	subi	r18, 0xFF	; 255
    12ce:	3f 4f       	sbci	r19, 0xFF	; 255
    12d0:	20 83       	st	Z, r18
    12d2:	31 83       	std	Z+1, r19	; 0x01
    12d4:	8c 93       	st	X, r24
    12d6:	26 81       	ldd	r18, Z+6	; 0x06
    12d8:	37 81       	ldd	r19, Z+7	; 0x07
    12da:	2f 5f       	subi	r18, 0xFF	; 255
    12dc:	3f 4f       	sbci	r19, 0xFF	; 255
    12de:	26 83       	std	Z+6, r18	; 0x06
    12e0:	37 83       	std	Z+7, r19	; 0x07
    12e2:	14 c0       	rjmp	.+40     	; 0x130c <fputc+0x6e>
    12e4:	8b 01       	movw	r16, r22
    12e6:	ec 01       	movw	r28, r24
    12e8:	fb 01       	movw	r30, r22
    12ea:	00 84       	ldd	r0, Z+8	; 0x08
    12ec:	f1 85       	ldd	r31, Z+9	; 0x09
    12ee:	e0 2d       	mov	r30, r0
    12f0:	09 95       	icall
    12f2:	89 2b       	or	r24, r25
    12f4:	e1 f6       	brne	.-72     	; 0x12ae <fputc+0x10>
    12f6:	d8 01       	movw	r26, r16
    12f8:	16 96       	adiw	r26, 0x06	; 6
    12fa:	8d 91       	ld	r24, X+
    12fc:	9c 91       	ld	r25, X
    12fe:	17 97       	sbiw	r26, 0x07	; 7
    1300:	01 96       	adiw	r24, 0x01	; 1
    1302:	16 96       	adiw	r26, 0x06	; 6
    1304:	8d 93       	st	X+, r24
    1306:	9c 93       	st	X, r25
    1308:	17 97       	sbiw	r26, 0x07	; 7
    130a:	ce 01       	movw	r24, r28
    130c:	df 91       	pop	r29
    130e:	cf 91       	pop	r28
    1310:	1f 91       	pop	r17
    1312:	0f 91       	pop	r16
    1314:	08 95       	ret

00001316 <__ultoa_invert>:
    1316:	fa 01       	movw	r30, r20
    1318:	aa 27       	eor	r26, r26
    131a:	28 30       	cpi	r18, 0x08	; 8
    131c:	51 f1       	breq	.+84     	; 0x1372 <__ultoa_invert+0x5c>
    131e:	20 31       	cpi	r18, 0x10	; 16
    1320:	81 f1       	breq	.+96     	; 0x1382 <__ultoa_invert+0x6c>
    1322:	e8 94       	clt
    1324:	6f 93       	push	r22
    1326:	6e 7f       	andi	r22, 0xFE	; 254
    1328:	6e 5f       	subi	r22, 0xFE	; 254
    132a:	7f 4f       	sbci	r23, 0xFF	; 255
    132c:	8f 4f       	sbci	r24, 0xFF	; 255
    132e:	9f 4f       	sbci	r25, 0xFF	; 255
    1330:	af 4f       	sbci	r26, 0xFF	; 255
    1332:	b1 e0       	ldi	r27, 0x01	; 1
    1334:	3e d0       	rcall	.+124    	; 0x13b2 <__ultoa_invert+0x9c>
    1336:	b4 e0       	ldi	r27, 0x04	; 4
    1338:	3c d0       	rcall	.+120    	; 0x13b2 <__ultoa_invert+0x9c>
    133a:	67 0f       	add	r22, r23
    133c:	78 1f       	adc	r23, r24
    133e:	89 1f       	adc	r24, r25
    1340:	9a 1f       	adc	r25, r26
    1342:	a1 1d       	adc	r26, r1
    1344:	68 0f       	add	r22, r24
    1346:	79 1f       	adc	r23, r25
    1348:	8a 1f       	adc	r24, r26
    134a:	91 1d       	adc	r25, r1
    134c:	a1 1d       	adc	r26, r1
    134e:	6a 0f       	add	r22, r26
    1350:	71 1d       	adc	r23, r1
    1352:	81 1d       	adc	r24, r1
    1354:	91 1d       	adc	r25, r1
    1356:	a1 1d       	adc	r26, r1
    1358:	20 d0       	rcall	.+64     	; 0x139a <__ultoa_invert+0x84>
    135a:	09 f4       	brne	.+2      	; 0x135e <__ultoa_invert+0x48>
    135c:	68 94       	set
    135e:	3f 91       	pop	r19
    1360:	2a e0       	ldi	r18, 0x0A	; 10
    1362:	26 9f       	mul	r18, r22
    1364:	11 24       	eor	r1, r1
    1366:	30 19       	sub	r19, r0
    1368:	30 5d       	subi	r19, 0xD0	; 208
    136a:	31 93       	st	Z+, r19
    136c:	de f6       	brtc	.-74     	; 0x1324 <__ultoa_invert+0xe>
    136e:	cf 01       	movw	r24, r30
    1370:	08 95       	ret
    1372:	46 2f       	mov	r20, r22
    1374:	47 70       	andi	r20, 0x07	; 7
    1376:	40 5d       	subi	r20, 0xD0	; 208
    1378:	41 93       	st	Z+, r20
    137a:	b3 e0       	ldi	r27, 0x03	; 3
    137c:	0f d0       	rcall	.+30     	; 0x139c <__ultoa_invert+0x86>
    137e:	c9 f7       	brne	.-14     	; 0x1372 <__ultoa_invert+0x5c>
    1380:	f6 cf       	rjmp	.-20     	; 0x136e <__ultoa_invert+0x58>
    1382:	46 2f       	mov	r20, r22
    1384:	4f 70       	andi	r20, 0x0F	; 15
    1386:	40 5d       	subi	r20, 0xD0	; 208
    1388:	4a 33       	cpi	r20, 0x3A	; 58
    138a:	18 f0       	brcs	.+6      	; 0x1392 <__ultoa_invert+0x7c>
    138c:	49 5d       	subi	r20, 0xD9	; 217
    138e:	31 fd       	sbrc	r19, 1
    1390:	40 52       	subi	r20, 0x20	; 32
    1392:	41 93       	st	Z+, r20
    1394:	02 d0       	rcall	.+4      	; 0x139a <__ultoa_invert+0x84>
    1396:	a9 f7       	brne	.-22     	; 0x1382 <__ultoa_invert+0x6c>
    1398:	ea cf       	rjmp	.-44     	; 0x136e <__ultoa_invert+0x58>
    139a:	b4 e0       	ldi	r27, 0x04	; 4
    139c:	a6 95       	lsr	r26
    139e:	97 95       	ror	r25
    13a0:	87 95       	ror	r24
    13a2:	77 95       	ror	r23
    13a4:	67 95       	ror	r22
    13a6:	ba 95       	dec	r27
    13a8:	c9 f7       	brne	.-14     	; 0x139c <__ultoa_invert+0x86>
    13aa:	00 97       	sbiw	r24, 0x00	; 0
    13ac:	61 05       	cpc	r22, r1
    13ae:	71 05       	cpc	r23, r1
    13b0:	08 95       	ret
    13b2:	9b 01       	movw	r18, r22
    13b4:	ac 01       	movw	r20, r24
    13b6:	0a 2e       	mov	r0, r26
    13b8:	06 94       	lsr	r0
    13ba:	57 95       	ror	r21
    13bc:	47 95       	ror	r20
    13be:	37 95       	ror	r19
    13c0:	27 95       	ror	r18
    13c2:	ba 95       	dec	r27
    13c4:	c9 f7       	brne	.-14     	; 0x13b8 <__ultoa_invert+0xa2>
    13c6:	62 0f       	add	r22, r18
    13c8:	73 1f       	adc	r23, r19
    13ca:	84 1f       	adc	r24, r20
    13cc:	95 1f       	adc	r25, r21
    13ce:	a0 1d       	adc	r26, r0
    13d0:	08 95       	ret

000013d2 <ccp_write_io>:
    13d2:	dc 01       	movw	r26, r24
    13d4:	28 ed       	ldi	r18, 0xD8	; 216
    13d6:	20 93 34 00 	sts	0x0034, r18	; 0x800034 <__TEXT_REGION_LENGTH__+0x7f0034>
    13da:	6c 93       	st	X, r22
    13dc:	08 95       	ret

000013de <__prologue_saves__>:
    13de:	2f 92       	push	r2
    13e0:	3f 92       	push	r3
    13e2:	4f 92       	push	r4
    13e4:	5f 92       	push	r5
    13e6:	6f 92       	push	r6
    13e8:	7f 92       	push	r7
    13ea:	8f 92       	push	r8
    13ec:	9f 92       	push	r9
    13ee:	af 92       	push	r10
    13f0:	bf 92       	push	r11
    13f2:	cf 92       	push	r12
    13f4:	df 92       	push	r13
    13f6:	ef 92       	push	r14
    13f8:	ff 92       	push	r15
    13fa:	0f 93       	push	r16
    13fc:	1f 93       	push	r17
    13fe:	cf 93       	push	r28
    1400:	df 93       	push	r29
    1402:	cd b7       	in	r28, 0x3d	; 61
    1404:	de b7       	in	r29, 0x3e	; 62
    1406:	ca 1b       	sub	r28, r26
    1408:	db 0b       	sbc	r29, r27
    140a:	cd bf       	out	0x3d, r28	; 61
    140c:	de bf       	out	0x3e, r29	; 62
    140e:	09 94       	ijmp

00001410 <__epilogue_restores__>:
    1410:	2a 88       	ldd	r2, Y+18	; 0x12
    1412:	39 88       	ldd	r3, Y+17	; 0x11
    1414:	48 88       	ldd	r4, Y+16	; 0x10
    1416:	5f 84       	ldd	r5, Y+15	; 0x0f
    1418:	6e 84       	ldd	r6, Y+14	; 0x0e
    141a:	7d 84       	ldd	r7, Y+13	; 0x0d
    141c:	8c 84       	ldd	r8, Y+12	; 0x0c
    141e:	9b 84       	ldd	r9, Y+11	; 0x0b
    1420:	aa 84       	ldd	r10, Y+10	; 0x0a
    1422:	b9 84       	ldd	r11, Y+9	; 0x09
    1424:	c8 84       	ldd	r12, Y+8	; 0x08
    1426:	df 80       	ldd	r13, Y+7	; 0x07
    1428:	ee 80       	ldd	r14, Y+6	; 0x06
    142a:	fd 80       	ldd	r15, Y+5	; 0x05
    142c:	0c 81       	ldd	r16, Y+4	; 0x04
    142e:	1b 81       	ldd	r17, Y+3	; 0x03
    1430:	aa 81       	ldd	r26, Y+2	; 0x02
    1432:	b9 81       	ldd	r27, Y+1	; 0x01
    1434:	ce 0f       	add	r28, r30
    1436:	d1 1d       	adc	r29, r1
    1438:	cd bf       	out	0x3d, r28	; 61
    143a:	de bf       	out	0x3e, r29	; 62
    143c:	ed 01       	movw	r28, r26
    143e:	08 95       	ret

00001440 <_exit>:
    1440:	f8 94       	cli

00001442 <__stop_program>:
    1442:	ff cf       	rjmp	.-2      	; 0x1442 <__stop_program>
